GAS LISTING /tmp/cc6XacBc.s 			page 1


   1              		.file	"MemoryAllocator.cpp"
   2              		.option pic
   3              		.option norelax
   4              		.text
   5              	.Ltext0:
   6              		.align	2
   7              		.globl	_ZN15MemoryAllocator4initEv
   9              	_ZN15MemoryAllocator4initEv:
  10              	.LFB0:
  11              		.file 1 "src/MemoryAllocator.cpp"
   1:src/MemoryAllocator.cpp **** #include "../h/MemoryAllocator.h"
   2:src/MemoryAllocator.cpp **** 
   3:src/MemoryAllocator.cpp **** MemoryAllocator::BlockHeader* MemoryAllocator::freeMemHead = nullptr;
   4:src/MemoryAllocator.cpp **** 
   5:src/MemoryAllocator.cpp **** void MemoryAllocator::init() {
  12              		.loc 1 5 30
  13              		.cfi_startproc
  14 0000 130101FF 		addi	sp,sp,-16
  15              		.cfi_def_cfa_offset 16
  16 0004 23348100 		sd	s0,8(sp)
  17              		.cfi_offset 8, -8
  18 0008 13040101 		addi	s0,sp,16
  19              		.cfi_def_cfa 8, 0
   6:src/MemoryAllocator.cpp ****     freeMemHead = (BlockHeader*)HEAP_START_ADDR;
  20              		.loc 1 6 5
  21              		.loc 1 6 17 is_stmt 0
  22 000c 97070000 		la	a5,HEAP_START_ADDR
  22      83B70700 
  23 0014 03B70700 		ld	a4,0(a5)
  24 0018 97060000 		lla	a3,.LANCHOR0
  24      93860600 
  25 0020 23B0E600 		sd	a4,0(a3)
   7:src/MemoryAllocator.cpp **** 
   8:src/MemoryAllocator.cpp ****     size_t totalBytes = (char*)HEAP_END_ADDR - (char*)HEAP_START_ADDR;
  26              		.loc 1 8 5 is_stmt 1
  27              		.loc 1 8 25 is_stmt 0
  28 0024 97070000 		la	a5,HEAP_END_ADDR
  28      83B70700 
  29 002c 83B70700 		ld	a5,0(a5)
  30              		.loc 1 8 46
  31 0030 B387E740 		sub	a5,a5,a4
  32              	.LVL0:
   9:src/MemoryAllocator.cpp ****     size_t totalBlocks = totalBytes / MEM_BLOCK_SIZE;
  33              		.loc 1 9 5 is_stmt 1
  34              		.loc 1 9 12 is_stmt 0
  35 0034 93D76700 		srli	a5,a5,6
  36              	.LVL1:
  10:src/MemoryAllocator.cpp **** 
  11:src/MemoryAllocator.cpp ****     freeMemHead->size = totalBlocks;
  37              		.loc 1 11 5 is_stmt 1
  38              		.loc 1 11 23 is_stmt 0
  39 0038 2330F700 		sd	a5,0(a4)
  40              	.LVL2:
  12:src/MemoryAllocator.cpp ****     freeMemHead->next = nullptr;
  41              		.loc 1 12 5 is_stmt 1
  42              		.loc 1 12 18 is_stmt 0
  43 003c 83B70600 		ld	a5,0(a3)
GAS LISTING /tmp/cc6XacBc.s 			page 2


  44              	.LVL3:
  45              		.loc 1 12 23
  46 0040 23B40700 		sd	zero,8(a5)
  47              	.LVL4:
  13:src/MemoryAllocator.cpp **** }
  48              		.loc 1 13 1
  49 0044 03348100 		ld	s0,8(sp)
  50              		.cfi_restore 8
  51              		.cfi_def_cfa 2, 16
  52 0048 13010101 		addi	sp,sp,16
  53              		.cfi_def_cfa_offset 0
  54 004c 67800000 		jr	ra
  55              		.cfi_endproc
  56              	.LFE0:
  58              		.align	2
  59              		.globl	_ZN15MemoryAllocator9mem_allocEm
  61              	_ZN15MemoryAllocator9mem_allocEm:
  62              	.LFB1:
  14:src/MemoryAllocator.cpp **** 
  15:src/MemoryAllocator.cpp **** void* MemoryAllocator::mem_alloc(size_t size) {
  63              		.loc 1 15 47 is_stmt 1
  64              		.cfi_startproc
  65              	.LVL5:
  66 0050 130101FF 		addi	sp,sp,-16
  67              		.cfi_def_cfa_offset 16
  68 0054 23348100 		sd	s0,8(sp)
  69              		.cfi_offset 8, -8
  70 0058 13040101 		addi	s0,sp,16
  71              		.cfi_def_cfa 8, 0
  16:src/MemoryAllocator.cpp ****     if (!size) return nullptr;
  72              		.loc 1 16 5
  73 005c 63080508 		beqz	a0,.L11
  17:src/MemoryAllocator.cpp **** 
  18:src/MemoryAllocator.cpp ****     size_t blocksNeeded = size + 1; // jedan dodatan block potreban za BlockHeader
  74              		.loc 1 18 5
  75              		.loc 1 18 12 is_stmt 0
  76 0060 13071500 		addi	a4,a0,1
  77              	.LVL6:
  19:src/MemoryAllocator.cpp ****     BlockHeader* prev = nullptr;
  78              		.loc 1 19 5 is_stmt 1
  20:src/MemoryAllocator.cpp ****     BlockHeader* curr = freeMemHead;
  79              		.loc 1 20 5
  80              		.loc 1 20 18 is_stmt 0
  81 0064 17050000 		ld	a0,.LANCHOR0
  81      03350500 
  82              	.LVL7:
  19:src/MemoryAllocator.cpp ****     BlockHeader* prev = nullptr;
  83              		.loc 1 19 18
  84 006c 93060000 		li	a3,0
  85              	.LVL8:
  86              	.L10:
  21:src/MemoryAllocator.cpp **** 
  22:src/MemoryAllocator.cpp ****     // First fit
  23:src/MemoryAllocator.cpp ****     while (curr != nullptr) {
  87              		.loc 1 23 5 is_stmt 1
  88              		.loc 1 23 17
  89 0070 63020504 		beqz	a0,.L3
GAS LISTING /tmp/cc6XacBc.s 			page 3


  90              	.LBB2:
  24:src/MemoryAllocator.cpp ****         if (curr->size >= blocksNeeded) { // nasli smo block
  91              		.loc 1 24 9
  92              	.LBB3:
  93              		.loc 1 24 19 is_stmt 0
  94 0074 83370500 		ld	a5,0(a0)
  95              		.loc 1 24 9
  96 0078 63F8E700 		bgeu	a5,a4,.L13
  97              	.LBE3:
  25:src/MemoryAllocator.cpp ****             if (curr->size > blocksNeeded) {
  26:src/MemoryAllocator.cpp ****                 // cepanje slobodnog segmenta
  27:src/MemoryAllocator.cpp ****                 BlockHeader* newFreeBlock = (BlockHeader*)((char*)curr + blocksNeeded * MEM_BLOCK_S
  28:src/MemoryAllocator.cpp ****                 newFreeBlock->size = curr->size - blocksNeeded;
  29:src/MemoryAllocator.cpp ****                 newFreeBlock->next = curr->next;
  30:src/MemoryAllocator.cpp **** 
  31:src/MemoryAllocator.cpp ****                 if (prev) {
  32:src/MemoryAllocator.cpp ****                     prev->next = newFreeBlock;
  33:src/MemoryAllocator.cpp ****                 }
  34:src/MemoryAllocator.cpp ****                 else freeMemHead = newFreeBlock;
  35:src/MemoryAllocator.cpp ****             }
  36:src/MemoryAllocator.cpp ****             else {
  37:src/MemoryAllocator.cpp ****                 // uzima se ceo segment
  38:src/MemoryAllocator.cpp ****                 if (prev)
  39:src/MemoryAllocator.cpp ****                     prev->next = curr->next;
  40:src/MemoryAllocator.cpp ****                 else
  41:src/MemoryAllocator.cpp ****                     freeMemHead = curr->next;
  42:src/MemoryAllocator.cpp ****             }
  43:src/MemoryAllocator.cpp **** 
  44:src/MemoryAllocator.cpp ****             curr->next = nullptr;                   // curr sad predstavlja slobodan segment
  45:src/MemoryAllocator.cpp ****             return (char*)curr + MEM_BLOCK_SIZE;    // vraca se pokazivac na deo memorije odmah nak
  46:src/MemoryAllocator.cpp ****         }
  47:src/MemoryAllocator.cpp ****         prev = curr;
  98              		.loc 1 47 9 is_stmt 1
  99              	.LVL9:
  48:src/MemoryAllocator.cpp ****         curr = curr->next;
 100              		.loc 1 48 9
  47:src/MemoryAllocator.cpp ****         curr = curr->next;
 101              		.loc 1 47 14 is_stmt 0
 102 007c 93060500 		mv	a3,a0
 103              		.loc 1 48 14
 104 0080 03358500 		ld	a0,8(a0)
 105              	.LVL10:
 106              	.LBE2:
  23:src/MemoryAllocator.cpp ****         if (curr->size >= blocksNeeded) { // nasli smo block
 107              		.loc 1 23 5
 108 0084 6FF0DFFE 		j	.L10
 109              	.L13:
 110              	.LBB12:
 111              	.LBB10:
 112              	.LBB4:
  25:src/MemoryAllocator.cpp ****                 // cepanje slobodnog segmenta
 113              		.loc 1 25 13 is_stmt 1
 114              	.LBB5:
 115 0088 6372F704 		bleu	a5,a4,.L6
 116              	.LBB6:
  27:src/MemoryAllocator.cpp ****                 newFreeBlock->size = curr->size - blocksNeeded;
 117              		.loc 1 27 17
GAS LISTING /tmp/cc6XacBc.s 			page 4


  27:src/MemoryAllocator.cpp ****                 newFreeBlock->size = curr->size - blocksNeeded;
 118              		.loc 1 27 87 is_stmt 0
 119 008c 13166700 		slli	a2,a4,6
  27:src/MemoryAllocator.cpp ****                 newFreeBlock->size = curr->size - blocksNeeded;
 120              		.loc 1 27 30
 121 0090 3306C500 		add	a2,a0,a2
 122              	.LVL11:
  28:src/MemoryAllocator.cpp ****                 newFreeBlock->next = curr->next;
 123              		.loc 1 28 17 is_stmt 1
  28:src/MemoryAllocator.cpp ****                 newFreeBlock->next = curr->next;
 124              		.loc 1 28 49 is_stmt 0
 125 0094 B387E740 		sub	a5,a5,a4
  28:src/MemoryAllocator.cpp ****                 newFreeBlock->next = curr->next;
 126              		.loc 1 28 36
 127 0098 2330F600 		sd	a5,0(a2)
  29:src/MemoryAllocator.cpp **** 
 128              		.loc 1 29 17 is_stmt 1
  29:src/MemoryAllocator.cpp **** 
 129              		.loc 1 29 44 is_stmt 0
 130 009c 83378500 		ld	a5,8(a0)
  29:src/MemoryAllocator.cpp **** 
 131              		.loc 1 29 36
 132 00a0 2334F600 		sd	a5,8(a2)
  31:src/MemoryAllocator.cpp ****                     prev->next = newFreeBlock;
 133              		.loc 1 31 17 is_stmt 1
 134 00a4 638E0600 		beqz	a3,.L7
  32:src/MemoryAllocator.cpp ****                 }
 135              		.loc 1 32 21
  32:src/MemoryAllocator.cpp ****                 }
 136              		.loc 1 32 32 is_stmt 0
 137 00a8 23B4C600 		sd	a2,8(a3)
 138              	.LVL12:
 139              	.L8:
 140              	.LBE6:
 141              	.LBE5:
  44:src/MemoryAllocator.cpp ****             return (char*)curr + MEM_BLOCK_SIZE;    // vraca se pokazivac na deo memorije odmah nak
 142              		.loc 1 44 13 is_stmt 1
  44:src/MemoryAllocator.cpp ****             return (char*)curr + MEM_BLOCK_SIZE;    // vraca se pokazivac na deo memorije odmah nak
 143              		.loc 1 44 24 is_stmt 0
 144 00ac 23340500 		sd	zero,8(a0)
  45:src/MemoryAllocator.cpp ****         }
 145              		.loc 1 45 13 is_stmt 1
  45:src/MemoryAllocator.cpp ****         }
 146              		.loc 1 45 34 is_stmt 0
 147 00b0 13050504 		addi	a0,a0,64
 148              	.LVL13:
 149              	.L3:
 150              	.LBE4:
 151              	.LBE10:
 152              	.LBE12:
  49:src/MemoryAllocator.cpp ****     }
  50:src/MemoryAllocator.cpp ****     return nullptr;
  51:src/MemoryAllocator.cpp **** }
 153              		.loc 1 51 1
 154 00b4 03348100 		ld	s0,8(sp)
 155              		.cfi_remember_state
 156              		.cfi_restore 8
GAS LISTING /tmp/cc6XacBc.s 			page 5


 157              		.cfi_def_cfa 2, 16
 158 00b8 13010101 		addi	sp,sp,16
 159              		.cfi_def_cfa_offset 0
 160 00bc 67800000 		jr	ra
 161              	.LVL14:
 162              	.L7:
 163              		.cfi_restore_state
 164              	.LBB13:
 165              	.LBB11:
 166              	.LBB9:
 167              	.LBB8:
 168              	.LBB7:
  34:src/MemoryAllocator.cpp ****             }
 169              		.loc 1 34 22 is_stmt 1
  34:src/MemoryAllocator.cpp ****             }
 170              		.loc 1 34 34 is_stmt 0
 171 00c0 97070000 		sd	a2,.LANCHOR0,a5
 171      23B0C700 
 172 00c8 6FF05FFE 		j	.L8
 173              	.LVL15:
 174              	.L6:
 175              	.LBE7:
  38:src/MemoryAllocator.cpp ****                     prev->next = curr->next;
 176              		.loc 1 38 17 is_stmt 1
 177 00cc 63880600 		beqz	a3,.L9
  39:src/MemoryAllocator.cpp ****                 else
 178              		.loc 1 39 21
  39:src/MemoryAllocator.cpp ****                 else
 179              		.loc 1 39 40 is_stmt 0
 180 00d0 83378500 		ld	a5,8(a0)
  39:src/MemoryAllocator.cpp ****                 else
 181              		.loc 1 39 32
 182 00d4 23B4F600 		sd	a5,8(a3)
 183 00d8 6FF05FFD 		j	.L8
 184              	.L9:
  41:src/MemoryAllocator.cpp ****             }
 185              		.loc 1 41 21 is_stmt 1
  41:src/MemoryAllocator.cpp ****             }
 186              		.loc 1 41 41 is_stmt 0
 187 00dc 83378500 		ld	a5,8(a0)
  41:src/MemoryAllocator.cpp ****             }
 188              		.loc 1 41 33
 189 00e0 17070000 		sd	a5,.LANCHOR0,a4
 189      2330F700 
 190              	.LVL16:
 191 00e8 6FF05FFC 		j	.L8
 192              	.LVL17:
 193              	.L11:
 194              	.LBE8:
 195              	.LBE9:
 196              	.LBE11:
 197              	.LBE13:
  16:src/MemoryAllocator.cpp **** 
 198              		.loc 1 16 23
 199 00ec 13050000 		li	a0,0
 200              	.LVL18:
 201 00f0 6FF05FFC 		j	.L3
GAS LISTING /tmp/cc6XacBc.s 			page 6


 202              		.cfi_endproc
 203              	.LFE1:
 205              		.align	2
 206              		.globl	_ZN15MemoryAllocator8mem_freeEPv
 208              	_ZN15MemoryAllocator8mem_freeEPv:
 209              	.LFB2:
  52:src/MemoryAllocator.cpp **** 
  53:src/MemoryAllocator.cpp **** int MemoryAllocator::mem_free(void *ptr) {
 210              		.loc 1 53 42 is_stmt 1
 211              		.cfi_startproc
 212              	.LVL19:
 213 00f4 130101FF 		addi	sp,sp,-16
 214              		.cfi_def_cfa_offset 16
 215 00f8 23348100 		sd	s0,8(sp)
 216              		.cfi_offset 8, -8
 217 00fc 13040101 		addi	s0,sp,16
 218              		.cfi_def_cfa 8, 0
  54:src/MemoryAllocator.cpp ****     if (!ptr) return -1;
 219              		.loc 1 54 5
 220 0100 6306050C 		beqz	a0,.L21
  55:src/MemoryAllocator.cpp **** 
  56:src/MemoryAllocator.cpp ****     BlockHeader* blockToFree = (BlockHeader*)((char*)ptr - MEM_BLOCK_SIZE); // pokazivac na zaglavl
 221              		.loc 1 56 5
 222              		.loc 1 56 18 is_stmt 0
 223 0104 130705FC 		addi	a4,a0,-64
 224              	.LVL20:
  57:src/MemoryAllocator.cpp ****     if ((char*)blockToFree < (char*)HEAP_START_ADDR || (char*)blockToFree >= (char*)HEAP_END_ADDR)
 225              		.loc 1 57 5 is_stmt 1
 226              		.loc 1 57 30 is_stmt 0
 227 0108 97070000 		la	a5,HEAP_START_ADDR
 227      83B70700 
 228 0110 83B70700 		ld	a5,0(a5)
 229              		.loc 1 57 5
 230 0114 6360F70C 		bgtu	a5,a4,.L22
 231              		.loc 1 57 78 discriminator 1
 232 0118 97070000 		la	a5,HEAP_END_ADDR
 232      83B70700 
 233 0120 83B70700 		ld	a5,0(a5)
 234              		.loc 1 57 53 discriminator 1
 235 0124 637CF70A 		bleu	a5,a4,.L23
  58:src/MemoryAllocator.cpp ****         return -1;
  59:src/MemoryAllocator.cpp **** 
  60:src/MemoryAllocator.cpp ****     BlockHeader* prev = nullptr;
 236              		.loc 1 60 5 is_stmt 1
 237              	.LVL21:
  61:src/MemoryAllocator.cpp ****     BlockHeader* curr = freeMemHead;
 238              		.loc 1 61 5
 239              		.loc 1 61 18 is_stmt 0
 240 0128 97070000 		ld	a5,.LANCHOR0
 240      83B70700 
 241              	.LVL22:
  60:src/MemoryAllocator.cpp ****     BlockHeader* curr = freeMemHead;
 242              		.loc 1 60 18
 243 0130 93060000 		li	a3,0
 244              	.LVL23:
 245              	.L17:
  62:src/MemoryAllocator.cpp **** 
GAS LISTING /tmp/cc6XacBc.s 			page 7


  63:src/MemoryAllocator.cpp ****     while (curr != nullptr && curr < blockToFree) {
 246              		.loc 1 63 5 is_stmt 1
 247              		.loc 1 63 28
 248 0134 638A0700 		beqz	a5,.L16
 249              		.loc 1 63 28 is_stmt 0 discriminator 1
 250 0138 63F8E700 		bgeu	a5,a4,.L16
  64:src/MemoryAllocator.cpp ****         prev = curr;
 251              		.loc 1 64 9 is_stmt 1
 252              	.LVL24:
  65:src/MemoryAllocator.cpp ****         curr = curr->next;
 253              		.loc 1 65 9
  64:src/MemoryAllocator.cpp ****         prev = curr;
 254              		.loc 1 64 14 is_stmt 0
 255 013c 93860700 		mv	a3,a5
 256              		.loc 1 65 14
 257 0140 83B78700 		ld	a5,8(a5)
 258              	.LVL25:
  63:src/MemoryAllocator.cpp ****         prev = curr;
 259              		.loc 1 63 5
 260 0144 6FF01FFF 		j	.L17
 261              	.L16:
  66:src/MemoryAllocator.cpp ****     }
  67:src/MemoryAllocator.cpp **** 
  68:src/MemoryAllocator.cpp ****     //umetanje slobodnog segmenta
  69:src/MemoryAllocator.cpp ****     blockToFree->next = curr;
 262              		.loc 1 69 5 is_stmt 1
 263              		.loc 1 69 23 is_stmt 0
 264 0148 2334F5FC 		sd	a5,-56(a0)
  70:src/MemoryAllocator.cpp ****     if (prev)
 265              		.loc 1 70 5 is_stmt 1
 266 014c 63800604 		beqz	a3,.L18
  71:src/MemoryAllocator.cpp ****         prev->next = blockToFree;
 267              		.loc 1 71 9
 268              		.loc 1 71 20 is_stmt 0
 269 0150 23B4E600 		sd	a4,8(a3)
 270              	.L19:
  72:src/MemoryAllocator.cpp ****     else
  73:src/MemoryAllocator.cpp ****         freeMemHead = blockToFree;
  74:src/MemoryAllocator.cpp **** 
  75:src/MemoryAllocator.cpp ****     //spajanje sa sledecim segmentom (ako su susedni)
  76:src/MemoryAllocator.cpp ****     if (curr != nullptr && (char*)blockToFree + blockToFree->size * MEM_BLOCK_SIZE == (char*)curr) 
 271              		.loc 1 76 5 is_stmt 1
 272 0154 638A0700 		beqz	a5,.L20
 273              		.loc 1 76 62 is_stmt 0 discriminator 1
 274 0158 833505FC 		ld	a1,-64(a0)
 275              		.loc 1 76 67 discriminator 1
 276 015c 13966500 		slli	a2,a1,6
 277              		.loc 1 76 47 discriminator 1
 278 0160 3306C700 		add	a2,a4,a2
 279              		.loc 1 76 25 discriminator 1
 280 0164 630AF602 		beq	a2,a5,.L27
 281              	.LVL26:
 282              	.L20:
  77:src/MemoryAllocator.cpp ****         blockToFree->size += curr->size;
  78:src/MemoryAllocator.cpp ****         blockToFree->next = curr->next;
  79:src/MemoryAllocator.cpp ****     }
  80:src/MemoryAllocator.cpp **** 
GAS LISTING /tmp/cc6XacBc.s 			page 8


  81:src/MemoryAllocator.cpp ****     //spajanje sa prethodnim segmentom (ako su susedni)
  82:src/MemoryAllocator.cpp ****     if (prev != nullptr && (char*)prev + prev->size * MEM_BLOCK_SIZE == (char*)blockToFree) {
 283              		.loc 1 82 5 is_stmt 1
 284 0168 638E0606 		beqz	a3,.L24
 285              		.loc 1 82 48 is_stmt 0 discriminator 1
 286 016c 03B60600 		ld	a2,0(a3)
 287              		.loc 1 82 53 discriminator 1
 288 0170 93176600 		slli	a5,a2,6
 289              		.loc 1 82 40 discriminator 1
 290 0174 B387F600 		add	a5,a3,a5
 291              		.loc 1 82 25 discriminator 1
 292 0178 638CE702 		beq	a5,a4,.L28
  83:src/MemoryAllocator.cpp ****         prev->size += blockToFree->size;
  84:src/MemoryAllocator.cpp ****         prev->next = blockToFree->next;
  85:src/MemoryAllocator.cpp ****     }
  86:src/MemoryAllocator.cpp **** 
  87:src/MemoryAllocator.cpp ****     return 0;
 293              		.loc 1 87 12
 294 017c 13050000 		li	a0,0
 295              	.LVL27:
 296              	.L15:
  88:src/MemoryAllocator.cpp **** }...
 297              		.loc 1 88 1
 298 0180 03348100 		ld	s0,8(sp)
 299              		.cfi_remember_state
 300              		.cfi_restore 8
 301              		.cfi_def_cfa 2, 16
 302 0184 13010101 		addi	sp,sp,16
 303              		.cfi_def_cfa_offset 0
 304 0188 67800000 		jr	ra
 305              	.LVL28:
 306              	.L18:
 307              		.cfi_restore_state
  73:src/MemoryAllocator.cpp ****         freeMemHead = blockToFree;
 308              		.loc 1 73 9 is_stmt 1
  73:src/MemoryAllocator.cpp ****         freeMemHead = blockToFree;
 309              		.loc 1 73 21 is_stmt 0
 310 018c 17060000 		sd	a4,.LANCHOR0,a2
 310      2330E600 
 311 0194 6FF01FFC 		j	.L19
 312              	.L27:
  77:src/MemoryAllocator.cpp ****         blockToFree->size += curr->size;
 313              		.loc 1 77 9 is_stmt 1
  77:src/MemoryAllocator.cpp ****         blockToFree->size += curr->size;
 314              		.loc 1 77 36 is_stmt 0
 315 0198 03B60700 		ld	a2,0(a5)
  77:src/MemoryAllocator.cpp ****         blockToFree->size += curr->size;
 316              		.loc 1 77 27
 317 019c B385C500 		add	a1,a1,a2
 318 01a0 2330B5FC 		sd	a1,-64(a0)
  78:src/MemoryAllocator.cpp ****         blockToFree->next = curr->next;
 319              		.loc 1 78 9 is_stmt 1
  78:src/MemoryAllocator.cpp ****         blockToFree->next = curr->next;
 320              		.loc 1 78 35 is_stmt 0
 321 01a4 83B78700 		ld	a5,8(a5)
 322              	.LVL29:
  78:src/MemoryAllocator.cpp ****         blockToFree->next = curr->next;
GAS LISTING /tmp/cc6XacBc.s 			page 9


 323              		.loc 1 78 27
 324 01a8 2334F5FC 		sd	a5,-56(a0)
 325 01ac 6FF0DFFB 		j	.L20
 326              	.L28:
  83:src/MemoryAllocator.cpp ****         prev->size += blockToFree->size;
 327              		.loc 1 83 9 is_stmt 1
  83:src/MemoryAllocator.cpp ****         prev->size += blockToFree->size;
 328              		.loc 1 83 36 is_stmt 0
 329 01b0 833705FC 		ld	a5,-64(a0)
  83:src/MemoryAllocator.cpp ****         prev->size += blockToFree->size;
 330              		.loc 1 83 20
 331 01b4 3306F600 		add	a2,a2,a5
 332 01b8 23B0C600 		sd	a2,0(a3)
  84:src/MemoryAllocator.cpp ****         prev->next = blockToFree->next;
 333              		.loc 1 84 9 is_stmt 1
  84:src/MemoryAllocator.cpp ****         prev->next = blockToFree->next;
 334              		.loc 1 84 35 is_stmt 0
 335 01bc 833785FC 		ld	a5,-56(a0)
  84:src/MemoryAllocator.cpp ****         prev->next = blockToFree->next;
 336              		.loc 1 84 20
 337 01c0 23B4F600 		sd	a5,8(a3)
  87:src/MemoryAllocator.cpp ****     return 0;
 338              		.loc 1 87 12
 339 01c4 13050000 		li	a0,0
 340              	.LVL30:
 341 01c8 6FF09FFB 		j	.L15
 342              	.LVL31:
 343              	.L21:
  54:src/MemoryAllocator.cpp ****     if (!ptr) return -1;
 344              		.loc 1 54 23
 345 01cc 1305F0FF 		li	a0,-1
 346              	.LVL32:
 347 01d0 6FF01FFB 		j	.L15
 348              	.LVL33:
 349              	.L22:
  58:src/MemoryAllocator.cpp ****         return -1;
 350              		.loc 1 58 17
 351 01d4 1305F0FF 		li	a0,-1
 352              	.LVL34:
 353 01d8 6FF09FFA 		j	.L15
 354              	.LVL35:
 355              	.L23:
 356 01dc 1305F0FF 		li	a0,-1
 357              	.LVL36:
 358 01e0 6FF01FFA 		j	.L15
 359              	.LVL37:
 360              	.L24:
  87:src/MemoryAllocator.cpp ****     return 0;
 361              		.loc 1 87 12
 362 01e4 13050000 		li	a0,0
 363              	.LVL38:
 364 01e8 6FF09FF9 		j	.L15
 365              		.cfi_endproc
 366              	.LFE2:
 368              		.globl	_ZN15MemoryAllocator11freeMemHeadE
 369              		.bss
 370              		.align	3
GAS LISTING /tmp/cc6XacBc.s 			page 10


 371              		.set	.LANCHOR0,. + 0
 374              	_ZN15MemoryAllocator11freeMemHeadE:
 375 0000 00000000 		.zero	8
 375      00000000 
 376              		.text
 377              	.Letext0:
 378              		.file 2 "src/../h/../lib/hw.h"
 379              		.file 3 "src/../h/MemoryAllocator.h"
GAS LISTING /tmp/cc6XacBc.s 			page 11

