GAS LISTING /tmp/cc6XacBc.s 			page 1


   1              		.file	"MemoryAllocator.cpp"
   2              		.option pic
   3              		.option norelax
   4              		.text
   5              	.Ltext0:
   6              		.align	2
   7              		.globl	_ZN15MemoryAllocator4initEv
   9              	_ZN15MemoryAllocator4initEv:
  10              	.LFB0:
  11              		.file 1 "src/MemoryAllocator.cpp"
   1:src/MemoryAllocator.cpp **** #include "../h/MemoryAllocator.h"
   2:src/MemoryAllocator.cpp **** 
   3:src/MemoryAllocator.cpp **** MemoryAllocator::BlockHeader* MemoryAllocator::freeMemHead = nullptr;
   4:src/MemoryAllocator.cpp **** 
   5:src/MemoryAllocator.cpp **** void MemoryAllocator::init() {
  12              		.loc 1 5 30
  13              		.cfi_startproc
  14 0000 130101FF 		addi	sp,sp,-16
  15              		.cfi_def_cfa_offset 16
  16 0004 23348100 		sd	s0,8(sp)
  17              		.cfi_offset 8, -8
  18 0008 13040101 		addi	s0,sp,16
  19              		.cfi_def_cfa 8, 0
   6:src/MemoryAllocator.cpp ****     freeMemHead = (BlockHeader*)HEAP_START_ADDR;
  20              		.loc 1 6 5
  21              		.loc 1 6 17 is_stmt 0
  22 000c 97070000 		la	a5,HEAP_START_ADDR
  22      83B70700 
  23 0014 03B70700 		ld	a4,0(a5)
  24 0018 97060000 		lla	a3,.LANCHOR0
  24      93860600 
  25 0020 23B0E600 		sd	a4,0(a3)
   7:src/MemoryAllocator.cpp **** 
   8:src/MemoryAllocator.cpp ****     size_t totalBytes = (char*)HEAP_END_ADDR - (char*)HEAP_START_ADDR;
  26              		.loc 1 8 5 is_stmt 1
  27              		.loc 1 8 25 is_stmt 0
  28 0024 97070000 		la	a5,HEAP_END_ADDR
  28      83B70700 
  29 002c 83B70700 		ld	a5,0(a5)
  30              		.loc 1 8 46
  31 0030 B387E740 		sub	a5,a5,a4
  32              	.LVL0:
   9:src/MemoryAllocator.cpp ****     size_t totalBlocks = totalBytes / MEM_BLOCK_SIZE;
  33              		.loc 1 9 5 is_stmt 1
  34              		.loc 1 9 12 is_stmt 0
  35 0034 93D76700 		srli	a5,a5,6
  36              	.LVL1:
  10:src/MemoryAllocator.cpp **** 
  11:src/MemoryAllocator.cpp ****     freeMemHead->size = totalBlocks;
  37              		.loc 1 11 5 is_stmt 1
  38              		.loc 1 11 23 is_stmt 0
  39 0038 2330F700 		sd	a5,0(a4)
  40              	.LVL2:
  12:src/MemoryAllocator.cpp ****     freeMemHead->next = nullptr;
  41              		.loc 1 12 5 is_stmt 1
  42              		.loc 1 12 18 is_stmt 0
  43 003c 83B70600 		ld	a5,0(a3)
GAS LISTING /tmp/cc6XacBc.s 			page 2


  44              	.LVL3:
  45              		.loc 1 12 23
  46 0040 23B40700 		sd	zero,8(a5)
  47              	.LVL4:
  13:src/MemoryAllocator.cpp **** }
  48              		.loc 1 13 1
  49 0044 03348100 		ld	s0,8(sp)
  50              		.cfi_restore 8
  51              		.cfi_def_cfa 2, 16
  52 0048 13010101 		addi	sp,sp,16
  53              		.cfi_def_cfa_offset 0
  54 004c 67800000 		jr	ra
  55              		.cfi_endproc
  56              	.LFE0:
  58              		.align	2
  59              		.globl	_ZN15MemoryAllocator9mem_allocEm
  61              	_ZN15MemoryAllocator9mem_allocEm:
  62              	.LFB1:
  14:src/MemoryAllocator.cpp **** 
  15:src/MemoryAllocator.cpp **** void* MemoryAllocator::mem_alloc(size_t size) {
  63              		.loc 1 15 47 is_stmt 1
  64              		.cfi_startproc
  65              	.LVL5:
  66 0050 130101FF 		addi	sp,sp,-16
  67              		.cfi_def_cfa_offset 16
  68 0054 23348100 		sd	s0,8(sp)
  69              		.cfi_offset 8, -8
  70 0058 13040101 		addi	s0,sp,16
  71              		.cfi_def_cfa 8, 0
  16:src/MemoryAllocator.cpp ****     if (!size) return nullptr;
  72              		.loc 1 16 5
  73 005c 63080508 		beqz	a0,.L11
  17:src/MemoryAllocator.cpp **** 
  18:src/MemoryAllocator.cpp ****     size_t blocksNeeded = size + 1; // jedan dodatan block potreban za BlockHeader
  74              		.loc 1 18 5
  75              		.loc 1 18 12 is_stmt 0
  76 0060 13071500 		addi	a4,a0,1
  77              	.LVL6:
  19:src/MemoryAllocator.cpp ****     BlockHeader* prev = nullptr;
  78              		.loc 1 19 5 is_stmt 1
  20:src/MemoryAllocator.cpp ****     BlockHeader* curr = freeMemHead;
  79              		.loc 1 20 5
  80              		.loc 1 20 18 is_stmt 0
  81 0064 17050000 		ld	a0,.LANCHOR0
  81      03350500 
  82              	.LVL7:
  19:src/MemoryAllocator.cpp ****     BlockHeader* prev = nullptr;
  83              		.loc 1 19 18
  84 006c 93060000 		li	a3,0
  85              	.LVL8:
  86              	.L10:
  21:src/MemoryAllocator.cpp **** 
  22:src/MemoryAllocator.cpp ****     // First fit
  23:src/MemoryAllocator.cpp ****     while (curr != nullptr) {
  87              		.loc 1 23 5 is_stmt 1
  88              		.loc 1 23 17
  89 0070 63020504 		beqz	a0,.L3
GAS LISTING /tmp/cc6XacBc.s 			page 3


  90              	.LBB2:
  24:src/MemoryAllocator.cpp ****         if (curr->size >= blocksNeeded) { // nasli smo block
  91              		.loc 1 24 9
  92              	.LBB3:
  93              		.loc 1 24 19 is_stmt 0
  94 0074 83370500 		ld	a5,0(a0)
  95              		.loc 1 24 9
  96 0078 63F8E700 		bgeu	a5,a4,.L13
  97              	.LBE3:
  25:src/MemoryAllocator.cpp ****             if (curr->size > blocksNeeded) {
  26:src/MemoryAllocator.cpp ****                 // cepanje slobodnog segmenta
  27:src/MemoryAllocator.cpp ****                 BlockHeader* newFreeBlock = (BlockHeader*)((char*)curr + blocksNeeded * MEM_BLOCK_S
  28:src/MemoryAllocator.cpp ****                 newFreeBlock->size = curr->size - blocksNeeded;
  29:src/MemoryAllocator.cpp ****                 newFreeBlock->next = curr->next;
  30:src/MemoryAllocator.cpp **** 
  31:src/MemoryAllocator.cpp ****                 if (prev) {
  32:src/MemoryAllocator.cpp ****                     prev->next = newFreeBlock;
  33:src/MemoryAllocator.cpp ****                 }
  34:src/MemoryAllocator.cpp ****                 else freeMemHead = newFreeBlock;
  35:src/MemoryAllocator.cpp ****             }
  36:src/MemoryAllocator.cpp ****             else {
  37:src/MemoryAllocator.cpp ****                 // uzima se ceo segment
  38:src/MemoryAllocator.cpp ****                 if (prev)
  39:src/MemoryAllocator.cpp ****                     prev->next = curr->next;
  40:src/MemoryAllocator.cpp ****                 else
  41:src/MemoryAllocator.cpp ****                     freeMemHead = curr->next;
  42:src/MemoryAllocator.cpp ****             }
  43:src/MemoryAllocator.cpp **** 
  44:src/MemoryAllocator.cpp ****             curr->next = nullptr;                   // curr sad predstavlja slobodan segment
  45:src/MemoryAllocator.cpp ****             return (char*)curr + MEM_BLOCK_SIZE;    // vraca se pokazivac na deo memorije odmah nak
  46:src/MemoryAllocator.cpp ****         }
  47:src/MemoryAllocator.cpp ****         prev = curr;
  98              		.loc 1 47 9 is_stmt 1
  99              	.LVL9:
  48:src/MemoryAllocator.cpp ****         curr = curr->next;
 100              		.loc 1 48 9
  47:src/MemoryAllocator.cpp ****         curr = curr->next;
 101              		.loc 1 47 14 is_stmt 0
 102 007c 93060500 		mv	a3,a0
 103              		.loc 1 48 14
 104 0080 03358500 		ld	a0,8(a0)
 105              	.LVL10:
 106              	.LBE2:
  23:src/MemoryAllocator.cpp ****         if (curr->size >= blocksNeeded) { // nasli smo block
 107              		.loc 1 23 5
 108 0084 6FF0DFFE 		j	.L10
 109              	.L13:
 110              	.LBB12:
 111              	.LBB10:
 112              	.LBB4:
  25:src/MemoryAllocator.cpp ****                 // cepanje slobodnog segmenta
 113              		.loc 1 25 13 is_stmt 1
 114              	.LBB5:
 115 0088 6372F704 		bleu	a5,a4,.L6
 116              	.LBB6:
  27:src/MemoryAllocator.cpp ****                 newFreeBlock->size = curr->size - blocksNeeded;
 117              		.loc 1 27 17
GAS LISTING /tmp/cc6XacBc.s 			page 4


  27:src/MemoryAllocator.cpp ****                 newFreeBlock->size = curr->size - blocksNeeded;
 118              		.loc 1 27 87 is_stmt 0
 119 008c 13166700 		slli	a2,a4,6
  27:src/MemoryAllocator.cpp ****                 newFreeBlock->size = curr->size - blocksNeeded;
 120              		.loc 1 27 30
 121 0090 3306C500 		add	a2,a0,a2
 122              	.LVL11:
  28:src/MemoryAllocator.cpp ****                 newFreeBlock->next = curr->next;
 123              		.loc 1 28 17 is_stmt 1
  28:src/MemoryAllocator.cpp ****                 newFreeBlock->next = curr->next;
 124              		.loc 1 28 49 is_stmt 0
 125 0094 B387E740 		sub	a5,a5,a4
  28:src/MemoryAllocator.cpp ****                 newFreeBlock->next = curr->next;
 126              		.loc 1 28 36
 127 0098 2330F600 		sd	a5,0(a2)
  29:src/MemoryAllocator.cpp **** 
 128              		.loc 1 29 17 is_stmt 1
  29:src/MemoryAllocator.cpp **** 
 129              		.loc 1 29 44 is_stmt 0
 130 009c 83378500 		ld	a5,8(a0)
  29:src/MemoryAllocator.cpp **** 
 131              		.loc 1 29 36
 132 00a0 2334F600 		sd	a5,8(a2)
  31:src/MemoryAllocator.cpp ****                     prev->next = newFreeBlock;
 133              		.loc 1 31 17 is_stmt 1
 134 00a4 638E0600 		beqz	a3,.L7
  32:src/MemoryAllocator.cpp ****                 }
 135              		.loc 1 32 21
  32:src/MemoryAllocator.cpp ****                 }
 136              		.loc 1 32 32 is_stmt 0
 137 00a8 23B4C600 		sd	a2,8(a3)
 138              	.LVL12:
 139              	.L8:
 140              	.LBE6:
 141              	.LBE5:
  44:src/MemoryAllocator.cpp ****             return (char*)curr + MEM_BLOCK_SIZE;    // vraca se pokazivac na deo memorije odmah nak
 142              		.loc 1 44 13 is_stmt 1
  44:src/MemoryAllocator.cpp ****             return (char*)curr + MEM_BLOCK_SIZE;    // vraca se pokazivac na deo memorije odmah nak
 143              		.loc 1 44 24 is_stmt 0
 144 00ac 23340500 		sd	zero,8(a0)
  45:src/MemoryAllocator.cpp ****         }
 145              		.loc 1 45 13 is_stmt 1
  45:src/MemoryAllocator.cpp ****         }
 146              		.loc 1 45 34 is_stmt 0
 147 00b0 13050504 		addi	a0,a0,64
 148              	.LVL13:
 149              	.L3:
 150              	.LBE4:
 151              	.LBE10:
 152              	.LBE12:
  49:src/MemoryAllocator.cpp ****     }
  50:src/MemoryAllocator.cpp ****     return nullptr;
  51:src/MemoryAllocator.cpp **** }
 153              		.loc 1 51 1
 154 00b4 03348100 		ld	s0,8(sp)
 155              		.cfi_remember_state
 156              		.cfi_restore 8
GAS LISTING /tmp/cc6XacBc.s 			page 5


 157              		.cfi_def_cfa 2, 16
 158 00b8 13010101 		addi	sp,sp,16
 159              		.cfi_def_cfa_offset 0
 160 00bc 67800000 		jr	ra
 161              	.LVL14:
 162              	.L7:
 163              		.cfi_restore_state
 164              	.LBB13:
 165              	.LBB11:
 166              	.LBB9:
 167              	.LBB8:
 168              	.LBB7:
  34:src/MemoryAllocator.cpp ****             }
 169              		.loc 1 34 22 is_stmt 1
  34:src/MemoryAllocator.cpp ****             }
 170              		.loc 1 34 34 is_stmt 0
 171 00c0 97070000 		sd	a2,.LANCHOR0,a5
 171      23B0C700 
 172 00c8 6FF05FFE 		j	.L8
 173              	.LVL15:
 174              	.L6:
 175              	.LBE7:
  38:src/MemoryAllocator.cpp ****                     prev->next = curr->next;
 176              		.loc 1 38 17 is_stmt 1
 177 00cc 63880600 		beqz	a3,.L9
  39:src/MemoryAllocator.cpp ****                 else
 178              		.loc 1 39 21
  39:src/MemoryAllocator.cpp ****                 else
 179              		.loc 1 39 40 is_stmt 0
 180 00d0 83378500 		ld	a5,8(a0)
  39:src/MemoryAllocator.cpp ****                 else
 181              		.loc 1 39 32
 182 00d4 23B4F600 		sd	a5,8(a3)
 183 00d8 6FF05FFD 		j	.L8
 184              	.L9:
  41:src/MemoryAllocator.cpp ****             }
 185              		.loc 1 41 21 is_stmt 1
  41:src/MemoryAllocator.cpp ****             }
 186              		.loc 1 41 41 is_stmt 0
 187 00dc 83378500 		ld	a5,8(a0)
  41:src/MemoryAllocator.cpp ****             }
 188              		.loc 1 41 33
 189 00e0 17070000 		sd	a5,.LANCHOR0,a4
 189      2330F700 
 190              	.LVL16:
 191 00e8 6FF05FFC 		j	.L8
 192              	.LVL17:
 193              	.L11:
 194              	.LBE8:
 195              	.LBE9:
 196              	.LBE11:
 197              	.LBE13:
  16:src/MemoryAllocator.cpp **** 
 198              		.loc 1 16 23
 199 00ec 13050000 		li	a0,0
 200              	.LVL18:
 201 00f0 6FF05FFC 		j	.L3
GAS LISTING /tmp/cc6XacBc.s 			page 6


 202              		.cfi_endproc
 203              	.LFE1:
 205              		.align	2
 206              		.globl	_ZN15MemoryAllocator8mem_freeEPv
 208              	_ZN15MemoryAllocator8mem_freeEPv:
 209              	.LFB2:
  52:src/MemoryAllocator.cpp **** 
  53:src/MemoryAllocator.cpp **** int MemoryAllocator::mem_free(void *ptr) {
 210              		.loc 1 53 42 is_stmt 1
 211              		.cfi_startproc
 212              	.LVL19:
 213 00f4 130101FF 		addi	sp,sp,-16
 214              		.cfi_def_cfa_offset 16
 215 00f8 23348100 		sd	s0,8(sp)
 216              		.cfi_offset 8, -8
 217 00fc 13040101 		addi	s0,sp,16
 218              		.cfi_def_cfa 8, 0
  54:src/MemoryAllocator.cpp ****     if (!ptr) return -1;
 219              		.loc 1 54 5
 220 0100 6306050C 		beqz	a0,.L21
  55:src/MemoryAllocator.cpp **** 
  56:src/MemoryAllocator.cpp ****     BlockHeader* blockToFree = (BlockHeader*)((char*)ptr - MEM_BLOCK_SIZE); // pokazivac na zaglavl
 221              		.loc 1 56 5
 222              		.loc 1 56 18 is_stmt 0
 223 0104 130705FC 		addi	a4,a0,-64
 224              	.LVL20:
  57:src/MemoryAllocator.cpp ****     if ((char*)blockToFree < (char*)HEAP_START_ADDR || (char*)blockToFree >= (char*)HEAP_END_ADDR)
 225              		.loc 1 57 5 is_stmt 1
 226              		.loc 1 57 30 is_stmt 0
 227 0108 97070000 		la	a5,HEAP_START_ADDR
 227      83B70700 
 228 0110 83B70700 		ld	a5,0(a5)
 229              		.loc 1 57 5
 230 0114 6360F70C 		bgtu	a5,a4,.L22
 231              		.loc 1 57 78 discriminator 1
 232 0118 97070000 		la	a5,HEAP_END_ADDR
 232      83B70700 
 233 0120 83B70700 		ld	a5,0(a5)
 234              		.loc 1 57 53 discriminator 1
 235 0124 637CF70A 		bleu	a5,a4,.L23
  58:src/MemoryAllocator.cpp ****         return -1;
  59:src/MemoryAllocator.cpp **** 
  60:src/MemoryAllocator.cpp ****     BlockHeader* prev = nullptr;
 236              		.loc 1 60 5 is_stmt 1
 237              	.LVL21:
  61:src/MemoryAllocator.cpp ****     BlockHeader* curr = freeMemHead;
 238              		.loc 1 61 5
 239              		.loc 1 61 18 is_stmt 0
 240 0128 97070000 		ld	a5,.LANCHOR0
 240      83B70700 
 241              	.LVL22:
  60:src/MemoryAllocator.cpp ****     BlockHeader* curr = freeMemHead;
 242              		.loc 1 60 18
 243 0130 93060000 		li	a3,0
 244              	.LVL23:
 245              	.L17:
  62:src/MemoryAllocator.cpp **** 
GAS LISTING /tmp/cc6XacBc.s 			page 7


  63:src/MemoryAllocator.cpp ****     while (curr != nullptr && curr < blockToFree) {
 246              		.loc 1 63 5 is_stmt 1
 247              		.loc 1 63 28
 248 0134 638A0700 		beqz	a5,.L16
 249              		.loc 1 63 28 is_stmt 0 discriminator 1
 250 0138 63F8E700 		bgeu	a5,a4,.L16
  64:src/MemoryAllocator.cpp ****         prev = curr;
 251              		.loc 1 64 9 is_stmt 1
 252              	.LVL24:
  65:src/MemoryAllocator.cpp ****         curr = curr->next;
 253              		.loc 1 65 9
  64:src/MemoryAllocator.cpp ****         prev = curr;
 254              		.loc 1 64 14 is_stmt 0
 255 013c 93860700 		mv	a3,a5
 256              		.loc 1 65 14
 257 0140 83B78700 		ld	a5,8(a5)
 258              	.LVL25:
  63:src/MemoryAllocator.cpp ****         prev = curr;
 259              		.loc 1 63 5
 260 0144 6FF01FFF 		j	.L17
 261              	.L16:
  66:src/MemoryAllocator.cpp ****     }
  67:src/MemoryAllocator.cpp **** 
  68:src/MemoryAllocator.cpp ****     //umetanje slobodnog segmenta
  69:src/MemoryAllocator.cpp ****     blockToFree->next = curr;
 262              		.loc 1 69 5 is_stmt 1
 263              		.loc 1 69 23 is_stmt 0
 264 0148 2334F5FC 		sd	a5,-56(a0)
  70:src/MemoryAllocator.cpp ****     if (prev)
 265              		.loc 1 70 5 is_stmt 1
 266 014c 63800604 		beqz	a3,.L18
  71:src/MemoryAllocator.cpp ****         prev->next = blockToFree;
 267              		.loc 1 71 9
 268              		.loc 1 71 20 is_stmt 0
 269 0150 23B4E600 		sd	a4,8(a3)
 270              	.L19:
  72:src/MemoryAllocator.cpp ****     else
  73:src/MemoryAllocator.cpp ****         freeMemHead = blockToFree;
  74:src/MemoryAllocator.cpp **** 
  75:src/MemoryAllocator.cpp ****     //spajanje sa sledecim segmentom (ako su susedni)
  76:src/MemoryAllocator.cpp ****     if (curr != nullptr && (char*)blockToFree + blockToFree->size * MEM_BLOCK_SIZE == (char*)curr) 
 271              		.loc 1 76 5 is_stmt 1
 272 0154 638A0700 		beqz	a5,.L20
 273              		.loc 1 76 62 is_stmt 0 discriminator 1
 274 0158 833505FC 		ld	a1,-64(a0)
 275              		.loc 1 76 67 discriminator 1
 276 015c 13966500 		slli	a2,a1,6
 277              		.loc 1 76 47 discriminator 1
 278 0160 3306C700 		add	a2,a4,a2
 279              		.loc 1 76 25 discriminator 1
 280 0164 630AF602 		beq	a2,a5,.L27
 281              	.LVL26:
 282              	.L20:
  77:src/MemoryAllocator.cpp ****         blockToFree->size += curr->size;
  78:src/MemoryAllocator.cpp ****         blockToFree->next = curr->next;
  79:src/MemoryAllocator.cpp ****     }
  80:src/MemoryAllocator.cpp **** 
GAS LISTING /tmp/cc6XacBc.s 			page 8


  81:src/MemoryAllocator.cpp ****     //spajanje sa prethodnim segmentom (ako su susedni)
  82:src/MemoryAllocator.cpp ****     if (prev != nullptr && (char*)prev + prev->size * MEM_BLOCK_SIZE == (char*)blockToFree) {
 283              		.loc 1 82 5 is_stmt 1
 284 0168 638E0606 		beqz	a3,.L24
 285              		.loc 1 82 48 is_stmt 0 discriminator 1
 286 016c 03B60600 		ld	a2,0(a3)
 287              		.loc 1 82 53 discriminator 1
 288 0170 93176600 		slli	a5,a2,6
 289              		.loc 1 82 40 discriminator 1
 290 0174 B387F600 		add	a5,a3,a5
 291              		.loc 1 82 25 discriminator 1
 292 0178 638CE702 		beq	a5,a4,.L28
  83:src/MemoryAllocator.cpp ****         prev->size += blockToFree->size;
  84:src/MemoryAllocator.cpp ****         prev->next = blockToFree->next;
  85:src/MemoryAllocator.cpp ****     }
  86:src/MemoryAllocator.cpp **** 
  87:src/MemoryAllocator.cpp ****     return 0;
 293              		.loc 1 87 12
 294 017c 13050000 		li	a0,0
 295              	.LVL27:
 296              	.L15:
  88:src/MemoryAllocator.cpp **** }...
 297              		.loc 1 88 1
 298 0180 03348100 		ld	s0,8(sp)
 299              		.cfi_remember_state
 300              		.cfi_restore 8
 301              		.cfi_def_cfa 2, 16
 302 0184 13010101 		addi	sp,sp,16
 303              		.cfi_def_cfa_offset 0
 304 0188 67800000 		jr	ra
 305              	.LVL28:
 306              	.L18:
 307              		.cfi_restore_state
  73:src/MemoryAllocator.cpp ****         freeMemHead = blockToFree;
 308              		.loc 1 73 9 is_stmt 1
  73:src/MemoryAllocator.cpp ****         freeMemHead = blockToFree;
 309              		.loc 1 73 21 is_stmt 0
 310 018c 17060000 		sd	a4,.LANCHOR0,a2
 310      2330E600 
 311 0194 6FF01FFC 		j	.L19
 312              	.L27:
  77:src/MemoryAllocator.cpp ****         blockToFree->size += curr->size;
 313              		.loc 1 77 9 is_stmt 1
  77:src/MemoryAllocator.cpp ****         blockToFree->size += curr->size;
 314              		.loc 1 77 36 is_stmt 0
 315 0198 03B60700 		ld	a2,0(a5)
  77:src/MemoryAllocator.cpp ****         blockToFree->size += curr->size;
 316              		.loc 1 77 27
 317 019c B385C500 		add	a1,a1,a2
 318 01a0 2330B5FC 		sd	a1,-64(a0)
  78:src/MemoryAllocator.cpp ****         blockToFree->next = curr->next;
 319              		.loc 1 78 9 is_stmt 1
  78:src/MemoryAllocator.cpp ****         blockToFree->next = curr->next;
 320              		.loc 1 78 35 is_stmt 0
 321 01a4 83B78700 		ld	a5,8(a5)
 322              	.LVL29:
  78:src/MemoryAllocator.cpp ****         blockToFree->next = curr->next;
GAS LISTING /tmp/cc6XacBc.s 			page 9


 323              		.loc 1 78 27
 324 01a8 2334F5FC 		sd	a5,-56(a0)
 325 01ac 6FF0DFFB 		j	.L20
 326              	.L28:
  83:src/MemoryAllocator.cpp ****         prev->size += blockToFree->size;
 327              		.loc 1 83 9 is_stmt 1
  83:src/MemoryAllocator.cpp ****         prev->size += blockToFree->size;
 328              		.loc 1 83 36 is_stmt 0
 329 01b0 833705FC 		ld	a5,-64(a0)
  83:src/MemoryAllocator.cpp ****         prev->size += blockToFree->size;
 330              		.loc 1 83 20
 331 01b4 3306F600 		add	a2,a2,a5
 332 01b8 23B0C600 		sd	a2,0(a3)
  84:src/MemoryAllocator.cpp ****         prev->next = blockToFree->next;
 333              		.loc 1 84 9 is_stmt 1
  84:src/MemoryAllocator.cpp ****         prev->next = blockToFree->next;
 334              		.loc 1 84 35 is_stmt 0
 335 01bc 833785FC 		ld	a5,-56(a0)
  84:src/MemoryAllocator.cpp ****         prev->next = blockToFree->next;
 336              		.loc 1 84 20
 337 01c0 23B4F600 		sd	a5,8(a3)
  87:src/MemoryAllocator.cpp ****     return 0;
 338              		.loc 1 87 12
 339 01c4 13050000 		li	a0,0
 340              	.LVL30:
 341 01c8 6FF09FFB 		j	.L15
 342              	.LVL31:
 343              	.L21:
  54:src/MemoryAllocator.cpp ****     if (!ptr) return -1;
 344              		.loc 1 54 23
 345 01cc 1305F0FF 		li	a0,-1
 346              	.LVL32:
 347 01d0 6FF01FFB 		j	.L15
 348              	.LVL33:
 349              	.L22:
  58:src/MemoryAllocator.cpp ****         return -1;
 350              		.loc 1 58 17
 351 01d4 1305F0FF 		li	a0,-1
 352              	.LVL34:
 353 01d8 6FF09FFA 		j	.L15
 354              	.LVL35:
 355              	.L23:
 356 01dc 1305F0FF 		li	a0,-1
 357              	.LVL36:
 358 01e0 6FF01FFA 		j	.L15
 359              	.LVL37:
 360              	.L24:
  87:src/MemoryAllocator.cpp ****     return 0;
 361              		.loc 1 87 12
 362 01e4 13050000 		li	a0,0
 363              	.LVL38:
 364 01e8 6FF09FF9 		j	.L15
 365              		.cfi_endproc
 366              	.LFE2:
 368              		.globl	_ZN15MemoryAllocator11freeMemHeadE
 369              		.bss
 370              		.align	3
GAS LISTING /tmp/cc6XacBc.s 			page 10


 371              		.set	.LANCHOR0,. + 0
 374              	_ZN15MemoryAllocator11freeMemHeadE:
 375 0000 00000000 		.zero	8
 375      00000000 
 376              		.text
 377              	.Letext0:
 378              		.file 2 "src/../h/../lib/hw.h"
 379              		.file 3 "src/../h/MemoryAllocator.h"
GAS LISTING /tmp/cc6XacBc.s 			page 11


DEFINED SYMBOLS
                            *ABS*:0000000000000000 MemoryAllocator.cpp
     /tmp/cc6XacBc.s:9      .text:0000000000000000 _ZN15MemoryAllocator4initEv
     /tmp/cc6XacBc.s:13     .text:0000000000000000 .L0 
     /tmp/cc6XacBc.s:14     .text:0000000000000000 .L0 
     /tmp/cc6XacBc.s:15     .text:0000000000000004 .L0 
     /tmp/cc6XacBc.s:17     .text:0000000000000008 .L0 
     /tmp/cc6XacBc.s:19     .text:000000000000000c .L0 
     /tmp/cc6XacBc.s:21     .text:000000000000000c .L0 
     /tmp/cc6XacBc.s:22     .text:000000000000000c .L0 
     /tmp/cc6XacBc.s:27     .text:0000000000000024 .L0 
     /tmp/cc6XacBc.s:28     .text:0000000000000024 .L0 
     /tmp/cc6XacBc.s:31     .text:0000000000000030 .L0 
     /tmp/cc6XacBc.s:34     .text:0000000000000034 .L0 
     /tmp/cc6XacBc.s:35     .text:0000000000000034 .L0 
     /tmp/cc6XacBc.s:38     .text:0000000000000038 .L0 
     /tmp/cc6XacBc.s:39     .text:0000000000000038 .L0 
     /tmp/cc6XacBc.s:42     .text:000000000000003c .L0 
     /tmp/cc6XacBc.s:43     .text:000000000000003c .L0 
     /tmp/cc6XacBc.s:46     .text:0000000000000040 .L0 
     /tmp/cc6XacBc.s:49     .text:0000000000000044 .L0 
     /tmp/cc6XacBc.s:50     .text:0000000000000048 .L0 
     /tmp/cc6XacBc.s:51     .text:0000000000000048 .L0 
     /tmp/cc6XacBc.s:53     .text:000000000000004c .L0 
     /tmp/cc6XacBc.s:55     .text:0000000000000050 .L0 
     /tmp/cc6XacBc.s:61     .text:0000000000000050 _ZN15MemoryAllocator9mem_allocEm
     /tmp/cc6XacBc.s:64     .text:0000000000000050 .L0 
     /tmp/cc6XacBc.s:66     .text:0000000000000050 .L0 
     /tmp/cc6XacBc.s:67     .text:0000000000000054 .L0 
     /tmp/cc6XacBc.s:69     .text:0000000000000058 .L0 
     /tmp/cc6XacBc.s:71     .text:000000000000005c .L0 
     /tmp/cc6XacBc.s:73     .text:000000000000005c .L0 
     /tmp/cc6XacBc.s:75     .text:0000000000000060 .L0 
     /tmp/cc6XacBc.s:76     .text:0000000000000060 .L0 
     /tmp/cc6XacBc.s:79     .text:0000000000000064 .L0 
     /tmp/cc6XacBc.s:80     .text:0000000000000064 .L0 
     /tmp/cc6XacBc.s:81     .text:0000000000000064 .L0 
     /tmp/cc6XacBc.s:84     .text:000000000000006c .L0 
     /tmp/cc6XacBc.s:88     .text:0000000000000070 .L0 
     /tmp/cc6XacBc.s:89     .text:0000000000000070 .L0 
     /tmp/cc6XacBc.s:93     .text:0000000000000074 .L0 
     /tmp/cc6XacBc.s:94     .text:0000000000000074 .L0 
     /tmp/cc6XacBc.s:96     .text:0000000000000078 .L0 
     /tmp/cc6XacBc.s:100    .text:000000000000007c .L0 
     /tmp/cc6XacBc.s:101    .text:000000000000007c .L0 
     /tmp/cc6XacBc.s:102    .text:000000000000007c .L0 
     /tmp/cc6XacBc.s:104    .text:0000000000000080 .L0 
     /tmp/cc6XacBc.s:108    .text:0000000000000084 .L0 
     /tmp/cc6XacBc.s:115    .text:0000000000000088 .L0 
     /tmp/cc6XacBc.s:118    .text:000000000000008c .L0 
     /tmp/cc6XacBc.s:119    .text:000000000000008c .L0 
     /tmp/cc6XacBc.s:121    .text:0000000000000090 .L0 
     /tmp/cc6XacBc.s:124    .text:0000000000000094 .L0 
     /tmp/cc6XacBc.s:125    .text:0000000000000094 .L0 
     /tmp/cc6XacBc.s:127    .text:0000000000000098 .L0 
     /tmp/cc6XacBc.s:129    .text:000000000000009c .L0 
     /tmp/cc6XacBc.s:130    .text:000000000000009c .L0 
GAS LISTING /tmp/cc6XacBc.s 			page 12


     /tmp/cc6XacBc.s:132    .text:00000000000000a0 .L0 
     /tmp/cc6XacBc.s:134    .text:00000000000000a4 .L0 
     /tmp/cc6XacBc.s:136    .text:00000000000000a8 .L0 
     /tmp/cc6XacBc.s:137    .text:00000000000000a8 .L0 
     /tmp/cc6XacBc.s:143    .text:00000000000000ac .L0 
     /tmp/cc6XacBc.s:144    .text:00000000000000ac .L0 
     /tmp/cc6XacBc.s:146    .text:00000000000000b0 .L0 
     /tmp/cc6XacBc.s:147    .text:00000000000000b0 .L0 
     /tmp/cc6XacBc.s:154    .text:00000000000000b4 .L0 
     /tmp/cc6XacBc.s:155    .text:00000000000000b8 .L0 
     /tmp/cc6XacBc.s:156    .text:00000000000000b8 .L0 
     /tmp/cc6XacBc.s:157    .text:00000000000000b8 .L0 
     /tmp/cc6XacBc.s:159    .text:00000000000000bc .L0 
     /tmp/cc6XacBc.s:163    .text:00000000000000c0 .L0 
     /tmp/cc6XacBc.s:170    .text:00000000000000c0 .L0 
     /tmp/cc6XacBc.s:171    .text:00000000000000c0 .L0 
     /tmp/cc6XacBc.s:177    .text:00000000000000cc .L0 
     /tmp/cc6XacBc.s:179    .text:00000000000000d0 .L0 
     /tmp/cc6XacBc.s:180    .text:00000000000000d0 .L0 
     /tmp/cc6XacBc.s:182    .text:00000000000000d4 .L0 
     /tmp/cc6XacBc.s:186    .text:00000000000000dc .L0 
     /tmp/cc6XacBc.s:187    .text:00000000000000dc .L0 
     /tmp/cc6XacBc.s:189    .text:00000000000000e0 .L0 
     /tmp/cc6XacBc.s:199    .text:00000000000000ec .L0 
     /tmp/cc6XacBc.s:202    .text:00000000000000f4 .L0 
     /tmp/cc6XacBc.s:208    .text:00000000000000f4 _ZN15MemoryAllocator8mem_freeEPv
     /tmp/cc6XacBc.s:211    .text:00000000000000f4 .L0 
     /tmp/cc6XacBc.s:213    .text:00000000000000f4 .L0 
     /tmp/cc6XacBc.s:214    .text:00000000000000f8 .L0 
     /tmp/cc6XacBc.s:216    .text:00000000000000fc .L0 
     /tmp/cc6XacBc.s:218    .text:0000000000000100 .L0 
     /tmp/cc6XacBc.s:220    .text:0000000000000100 .L0 
     /tmp/cc6XacBc.s:222    .text:0000000000000104 .L0 
     /tmp/cc6XacBc.s:223    .text:0000000000000104 .L0 
     /tmp/cc6XacBc.s:226    .text:0000000000000108 .L0 
     /tmp/cc6XacBc.s:227    .text:0000000000000108 .L0 
     /tmp/cc6XacBc.s:230    .text:0000000000000114 .L0 
     /tmp/cc6XacBc.s:232    .text:0000000000000118 .L0 
     /tmp/cc6XacBc.s:235    .text:0000000000000124 .L0 
     /tmp/cc6XacBc.s:238    .text:0000000000000128 .L0 
     /tmp/cc6XacBc.s:239    .text:0000000000000128 .L0 
     /tmp/cc6XacBc.s:240    .text:0000000000000128 .L0 
     /tmp/cc6XacBc.s:243    .text:0000000000000130 .L0 
     /tmp/cc6XacBc.s:247    .text:0000000000000134 .L0 
     /tmp/cc6XacBc.s:248    .text:0000000000000134 .L0 
     /tmp/cc6XacBc.s:250    .text:0000000000000138 .L0 
     /tmp/cc6XacBc.s:253    .text:000000000000013c .L0 
     /tmp/cc6XacBc.s:254    .text:000000000000013c .L0 
     /tmp/cc6XacBc.s:255    .text:000000000000013c .L0 
     /tmp/cc6XacBc.s:257    .text:0000000000000140 .L0 
     /tmp/cc6XacBc.s:260    .text:0000000000000144 .L0 
     /tmp/cc6XacBc.s:263    .text:0000000000000148 .L0 
     /tmp/cc6XacBc.s:264    .text:0000000000000148 .L0 
     /tmp/cc6XacBc.s:266    .text:000000000000014c .L0 
     /tmp/cc6XacBc.s:268    .text:0000000000000150 .L0 
     /tmp/cc6XacBc.s:269    .text:0000000000000150 .L0 
     /tmp/cc6XacBc.s:272    .text:0000000000000154 .L0 
GAS LISTING /tmp/cc6XacBc.s 			page 13


     /tmp/cc6XacBc.s:274    .text:0000000000000158 .L0 
     /tmp/cc6XacBc.s:276    .text:000000000000015c .L0 
     /tmp/cc6XacBc.s:278    .text:0000000000000160 .L0 
     /tmp/cc6XacBc.s:280    .text:0000000000000164 .L0 
     /tmp/cc6XacBc.s:284    .text:0000000000000168 .L0 
     /tmp/cc6XacBc.s:286    .text:000000000000016c .L0 
     /tmp/cc6XacBc.s:288    .text:0000000000000170 .L0 
     /tmp/cc6XacBc.s:290    .text:0000000000000174 .L0 
     /tmp/cc6XacBc.s:292    .text:0000000000000178 .L0 
     /tmp/cc6XacBc.s:294    .text:000000000000017c .L0 
     /tmp/cc6XacBc.s:298    .text:0000000000000180 .L0 
     /tmp/cc6XacBc.s:299    .text:0000000000000184 .L0 
     /tmp/cc6XacBc.s:300    .text:0000000000000184 .L0 
     /tmp/cc6XacBc.s:301    .text:0000000000000184 .L0 
     /tmp/cc6XacBc.s:303    .text:0000000000000188 .L0 
     /tmp/cc6XacBc.s:307    .text:000000000000018c .L0 
     /tmp/cc6XacBc.s:309    .text:000000000000018c .L0 
     /tmp/cc6XacBc.s:310    .text:000000000000018c .L0 
     /tmp/cc6XacBc.s:314    .text:0000000000000198 .L0 
     /tmp/cc6XacBc.s:315    .text:0000000000000198 .L0 
     /tmp/cc6XacBc.s:317    .text:000000000000019c .L0 
     /tmp/cc6XacBc.s:320    .text:00000000000001a4 .L0 
     /tmp/cc6XacBc.s:321    .text:00000000000001a4 .L0 
     /tmp/cc6XacBc.s:324    .text:00000000000001a8 .L0 
     /tmp/cc6XacBc.s:328    .text:00000000000001b0 .L0 
     /tmp/cc6XacBc.s:329    .text:00000000000001b0 .L0 
     /tmp/cc6XacBc.s:331    .text:00000000000001b4 .L0 
     /tmp/cc6XacBc.s:334    .text:00000000000001bc .L0 
     /tmp/cc6XacBc.s:335    .text:00000000000001bc .L0 
     /tmp/cc6XacBc.s:337    .text:00000000000001c0 .L0 
     /tmp/cc6XacBc.s:339    .text:00000000000001c4 .L0 
     /tmp/cc6XacBc.s:345    .text:00000000000001cc .L0 
     /tmp/cc6XacBc.s:351    .text:00000000000001d4 .L0 
     /tmp/cc6XacBc.s:362    .text:00000000000001e4 .L0 
     /tmp/cc6XacBc.s:365    .text:00000000000001ec .L0 
     /tmp/cc6XacBc.s:374    .bss:0000000000000000 _ZN15MemoryAllocator11freeMemHeadE
     /tmp/cc6XacBc.s:371    .bss:0000000000000000 .LANCHOR0
     /tmp/cc6XacBc.s:380    .text:00000000000001ec .L0 
     /tmp/cc6XacBc.s:22     .text:000000000000000c .L0 
     /tmp/cc6XacBc.s:24     .text:0000000000000018 .L0 
     /tmp/cc6XacBc.s:28     .text:0000000000000024 .L0 
     /tmp/cc6XacBc.s:81     .text:0000000000000064 .L0 
     /tmp/cc6XacBc.s:171    .text:00000000000000c0 .L0 
     /tmp/cc6XacBc.s:189    .text:00000000000000e0 .L0 
     /tmp/cc6XacBc.s:227    .text:0000000000000108 .L0 
     /tmp/cc6XacBc.s:232    .text:0000000000000118 .L0 
     /tmp/cc6XacBc.s:240    .text:0000000000000128 .L0 
     /tmp/cc6XacBc.s:310    .text:000000000000018c .L0 
     /tmp/cc6XacBc.s:193    .text:00000000000000ec .L11
     /tmp/cc6XacBc.s:149    .text:00000000000000b4 .L3
     /tmp/cc6XacBc.s:109    .text:0000000000000088 .L13
     /tmp/cc6XacBc.s:86     .text:0000000000000070 .L10
     /tmp/cc6XacBc.s:174    .text:00000000000000cc .L6
     /tmp/cc6XacBc.s:162    .text:00000000000000c0 .L7
     /tmp/cc6XacBc.s:139    .text:00000000000000ac .L8
     /tmp/cc6XacBc.s:184    .text:00000000000000dc .L9
     /tmp/cc6XacBc.s:343    .text:00000000000001cc .L21
GAS LISTING /tmp/cc6XacBc.s 			page 14


     /tmp/cc6XacBc.s:349    .text:00000000000001d4 .L22
     /tmp/cc6XacBc.s:355    .text:00000000000001dc .L23
     /tmp/cc6XacBc.s:261    .text:0000000000000148 .L16
     /tmp/cc6XacBc.s:245    .text:0000000000000134 .L17
     /tmp/cc6XacBc.s:306    .text:000000000000018c .L18
     /tmp/cc6XacBc.s:282    .text:0000000000000168 .L20
     /tmp/cc6XacBc.s:312    .text:0000000000000198 .L27
     /tmp/cc6XacBc.s:360    .text:00000000000001e4 .L24
     /tmp/cc6XacBc.s:326    .text:00000000000001b0 .L28
     /tmp/cc6XacBc.s:270    .text:0000000000000154 .L19
     /tmp/cc6XacBc.s:296    .text:0000000000000180 .L15
     /tmp/cc6XacBc.s:704    .debug_abbrev:0000000000000000 .Ldebug_abbrev0
     /tmp/cc6XacBc.s:1435   .debug_str:00000000000000f3 .LASF30
     /tmp/cc6XacBc.s:1453   .debug_str:000000000000023b .LASF31
     /tmp/cc6XacBc.s:1455   .debug_str:0000000000000253 .LASF32
     /tmp/cc6XacBc.s:5      .text:0000000000000000 .Ltext0
     /tmp/cc6XacBc.s:377    .text:00000000000001ec .Letext0
     /tmp/cc6XacBc.s:1399   .debug_line:0000000000000000 .Ldebug_line0
     /tmp/cc6XacBc.s:1439   .debug_str:00000000000001c3 .LASF0
     /tmp/cc6XacBc.s:1429   .debug_str:00000000000000c7 .LASF1
     /tmp/cc6XacBc.s:1425   .debug_str:00000000000000a7 .LASF2
     /tmp/cc6XacBc.s:1413   .debug_str:0000000000000042 .LASF4
     /tmp/cc6XacBc.s:1427   .debug_str:00000000000000b5 .LASF3
     /tmp/cc6XacBc.s:1405   .debug_str:0000000000000023 .LASF5
     /tmp/cc6XacBc.s:1401   .debug_str:0000000000000000 .LASF6
     /tmp/cc6XacBc.s:1419   .debug_str:0000000000000064 .LASF7
     /tmp/cc6XacBc.s:1447   .debug_str:00000000000001f9 .LASF8
     /tmp/cc6XacBc.s:1411   .debug_str:0000000000000034 .LASF9
     /tmp/cc6XacBc.s:1477   .debug_str:0000000000000305 .LASF10
     /tmp/cc6XacBc.s:1421   .debug_str:0000000000000077 .LASF11
     /tmp/cc6XacBc.s:1465   .debug_str:00000000000002b2 .LASF12
     /tmp/cc6XacBc.s:1445   .debug_str:00000000000001e9 .LASF13
     /tmp/cc6XacBc.s:1433   .debug_str:00000000000000e7 .LASF14
     /tmp/cc6XacBc.s:1417   .debug_str:000000000000004e .LASF15
     /tmp/cc6XacBc.s:1449   .debug_str:0000000000000209 .LASF16
     /tmp/cc6XacBc.s:1403   .debug_str:0000000000000013 .LASF33
     /tmp/cc6XacBc.s:1437   .debug_str:00000000000001b7 .LASF34
     /tmp/cc6XacBc.s:1473   .debug_str:00000000000002fb .LASF17
     /tmp/cc6XacBc.s:1407   .debug_str:000000000000002a .LASF18
     /tmp/cc6XacBc.s:1415   .debug_str:0000000000000049 .LASF35
     /tmp/cc6XacBc.s:1451   .debug_str:000000000000021f .LASF36
     /tmp/cc6XacBc.s:1469   .debug_str:00000000000002ce .LASF19
     /tmp/cc6XacBc.s:1461   .debug_str:0000000000000285 .LASF21
     /tmp/cc6XacBc.s:1457   .debug_str:0000000000000271 .LASF20
     /tmp/cc6XacBc.s:1423   .debug_str:0000000000000086 .LASF22
     /tmp/cc6XacBc.s:1441   .debug_str:00000000000001d0 .LASF37
     /tmp/cc6XacBc.s:1471   .debug_str:00000000000002d8 .LASF38
     /tmp/cc6XacBc.s:209    .text:00000000000000f4 .LFB2
     /tmp/cc6XacBc.s:366    .text:00000000000001ec .LFE2
     /tmp/cc6XacBc.s:1116   .debug_loc:0000000000000000 .LLST7
     /tmp/cc6XacBc.s:1463   .debug_str:00000000000002a6 .LASF23
     /tmp/cc6XacBc.s:1181   .debug_loc:0000000000000106 .LLST8
     /tmp/cc6XacBc.s:1475   .debug_str:0000000000000300 .LASF24
     /tmp/cc6XacBc.s:1196   .debug_loc:000000000000014f .LLST9
     /tmp/cc6XacBc.s:1409   .debug_str:000000000000002f .LASF25
     /tmp/cc6XacBc.s:1224   .debug_loc:00000000000001d2 .LLST10
     /tmp/cc6XacBc.s:62     .text:0000000000000050 .LFB1
GAS LISTING /tmp/cc6XacBc.s 			page 15


     /tmp/cc6XacBc.s:203    .text:00000000000000f4 .LFE1
     /tmp/cc6XacBc.s:1244   .debug_loc:000000000000022f .LLST2
     /tmp/cc6XacBc.s:1443   .debug_str:00000000000001dc .LASF26
     /tmp/cc6XacBc.s:1275   .debug_loc:00000000000002a6 .LLST3
     /tmp/cc6XacBc.s:1304   .debug_loc:000000000000030c .LLST4
     /tmp/cc6XacBc.s:1328   .debug_loc:000000000000037c .LLST5
     /tmp/cc6XacBc.s:1391   .debug_ranges:0000000000000000 .Ldebug_ranges0
     /tmp/cc6XacBc.s:1431   .debug_str:00000000000000da .LASF27
     /tmp/cc6XacBc.s:1348   .debug_loc:00000000000003d9 .LLST6
     /tmp/cc6XacBc.s:10     .text:0000000000000000 .LFB0
     /tmp/cc6XacBc.s:56     .text:0000000000000050 .LFE0
     /tmp/cc6XacBc.s:1459   .debug_str:000000000000027a .LASF28
     /tmp/cc6XacBc.s:1359   .debug_loc:000000000000040f .LLST0
     /tmp/cc6XacBc.s:1467   .debug_str:00000000000002c2 .LASF29
     /tmp/cc6XacBc.s:1366   .debug_loc:0000000000000432 .LLST1
     /tmp/cc6XacBc.s:212    .text:00000000000000f4 .LVL19
     /tmp/cc6XacBc.s:295    .text:0000000000000180 .LVL27
     /tmp/cc6XacBc.s:305    .text:000000000000018c .LVL28
     /tmp/cc6XacBc.s:340    .text:00000000000001c8 .LVL30
     /tmp/cc6XacBc.s:342    .text:00000000000001cc .LVL31
     /tmp/cc6XacBc.s:346    .text:00000000000001d0 .LVL32
     /tmp/cc6XacBc.s:348    .text:00000000000001d4 .LVL33
     /tmp/cc6XacBc.s:352    .text:00000000000001d8 .LVL34
     /tmp/cc6XacBc.s:354    .text:00000000000001dc .LVL35
     /tmp/cc6XacBc.s:357    .text:00000000000001e0 .LVL36
     /tmp/cc6XacBc.s:359    .text:00000000000001e4 .LVL37
     /tmp/cc6XacBc.s:363    .text:00000000000001e8 .LVL38
     /tmp/cc6XacBc.s:224    .text:0000000000000108 .LVL20
     /tmp/cc6XacBc.s:237    .text:0000000000000128 .LVL21
     /tmp/cc6XacBc.s:244    .text:0000000000000134 .LVL23
     /tmp/cc6XacBc.s:252    .text:000000000000013c .LVL24
     /tmp/cc6XacBc.s:258    .text:0000000000000144 .LVL25
     /tmp/cc6XacBc.s:241    .text:0000000000000130 .LVL22
     /tmp/cc6XacBc.s:281    .text:0000000000000168 .LVL26
     /tmp/cc6XacBc.s:322    .text:00000000000001a8 .LVL29
     /tmp/cc6XacBc.s:65     .text:0000000000000050 .LVL5
     /tmp/cc6XacBc.s:82     .text:000000000000006c .LVL7
     /tmp/cc6XacBc.s:138    .text:00000000000000ac .LVL12
     /tmp/cc6XacBc.s:192    .text:00000000000000ec .LVL17
     /tmp/cc6XacBc.s:200    .text:00000000000000f0 .LVL18
     /tmp/cc6XacBc.s:77     .text:0000000000000064 .LVL6
     /tmp/cc6XacBc.s:148    .text:00000000000000b4 .LVL13
     /tmp/cc6XacBc.s:161    .text:00000000000000c0 .LVL14
     /tmp/cc6XacBc.s:190    .text:00000000000000e8 .LVL16
     /tmp/cc6XacBc.s:85     .text:0000000000000070 .LVL8
     /tmp/cc6XacBc.s:99     .text:000000000000007c .LVL9
     /tmp/cc6XacBc.s:105    .text:0000000000000084 .LVL10
     /tmp/cc6XacBc.s:122    .text:0000000000000094 .LVL11
     /tmp/cc6XacBc.s:173    .text:00000000000000cc .LVL15
     /tmp/cc6XacBc.s:32     .text:0000000000000034 .LVL0
     /tmp/cc6XacBc.s:36     .text:0000000000000038 .LVL1
     /tmp/cc6XacBc.s:44     .text:0000000000000040 .LVL3
     /tmp/cc6XacBc.s:47     .text:0000000000000044 .LVL4
     /tmp/cc6XacBc.s:381    .debug_info:0000000000000000 .Ldebug_info0
     /tmp/cc6XacBc.s:116    .text:000000000000008c .LBB6
     /tmp/cc6XacBc.s:140    .text:00000000000000ac .LBE6
     /tmp/cc6XacBc.s:168    .text:00000000000000c0 .LBB7
GAS LISTING /tmp/cc6XacBc.s 			page 16


     /tmp/cc6XacBc.s:175    .text:00000000000000cc .LBE7

UNDEFINED SYMBOLS
HEAP_START_ADDR
HEAP_END_ADDR
