GAS LISTING /tmp/cc1bthvr.s 			page 1


   1              		.file	"riscv.cpp"
   2              		.option pic
   3              		.option norelax
   4              		.text
   5              	.Ltext0:
   6              		.align	2
   7              		.globl	handleSynchronousSysCalls
   9              	handleSynchronousSysCalls:
  10              	.LFB16:
  11              		.file 1 "src/riscv.cpp"
   1:src/riscv.cpp **** #include "../h/riscv.h"
   2:src/riscv.cpp **** #include "../h/opCodes.h"
   3:src/riscv.cpp **** 
   4:src/riscv.cpp **** void RiscV::handleSynchronousSysCalls() {
  12              		.loc 1 4 41
  13              		.cfi_startproc
  14 0000 130101FD 		addi	sp,sp,-48
  15              		.cfi_def_cfa_offset 48
  16 0004 23348102 		sd	s0,40(sp)
  17              		.cfi_offset 8, -8
  18 0008 13040103 		addi	s0,sp,48
  19              		.cfi_def_cfa 8, 0
   5:src/riscv.cpp **** 
   6:src/riscv.cpp ****     uint64 volatile sepc = r_sepc();
  20              		.loc 1 6 5
  21              	.LBB14:
  22              	.LBB15:
  23              		.file 2 "src/../h/riscv.h"
   1:src/../h/riscv.h **** #ifndef riscv
   2:src/../h/riscv.h **** #define riscv
   3:src/../h/riscv.h **** 
   4:src/../h/riscv.h **** #include "../lib/hw.h"
   5:src/../h/riscv.h **** 
   6:src/../h/riscv.h **** class RiscV {
   7:src/../h/riscv.h **** public:
   8:src/../h/riscv.h **** 
   9:src/../h/riscv.h ****     static void supervisorTrap();
  10:src/../h/riscv.h **** 
  11:src/../h/riscv.h **** private:
  12:src/../h/riscv.h **** 
  13:src/../h/riscv.h ****     static void handleSynchronousSysCalls()     __asm__ ("handleSynchronousSysCalls");
  14:src/../h/riscv.h ****     static void handleTimerInterrupt()          __asm__ ("handleTimerInterrupt");
  15:src/../h/riscv.h ****     static void handleConsoleInterrupt()        __asm__ ("handleConsoleInterrupt");
  16:src/../h/riscv.h **** 
  17:src/../h/riscv.h **** public:
  18:src/../h/riscv.h **** 
  19:src/../h/riscv.h ****     // funkcije koje su navedene ispod su u formatu r_sreg ili w_sreg sto oznacava citanje ili upis
  20:src/../h/riscv.h ****     // a sreg je sistemski registar na koji se to r ili w odnosi:
  21:src/../h/riscv.h **** 
  22:src/../h/riscv.h ****     static uint64   r_scause();
  23:src/../h/riscv.h **** 
  24:src/../h/riscv.h ****     static void     w_scause(uint64 scause);
  25:src/../h/riscv.h **** 
  26:src/../h/riscv.h ****     static uint64   r_sepc();
  27:src/../h/riscv.h **** 
  28:src/../h/riscv.h ****     static void     w_sepc(uint64 sepc);
  29:src/../h/riscv.h **** 
GAS LISTING /tmp/cc1bthvr.s 			page 2


  30:src/../h/riscv.h ****     static uint64   r_stvec();
  31:src/../h/riscv.h **** 
  32:src/../h/riscv.h ****     static void     w_stvec(uint64 stvec);
  33:src/../h/riscv.h **** 
  34:src/../h/riscv.h ****     static uint64   r_stval();
  35:src/../h/riscv.h **** 
  36:src/../h/riscv.h ****     static void     w_stval(uint64 stval);
  37:src/../h/riscv.h **** 
  38:src/../h/riscv.h ****     static uint64   r_sip();
  39:src/../h/riscv.h **** 
  40:src/../h/riscv.h ****     static void     w_sip(uint64 sip);
  41:src/../h/riscv.h **** 
  42:src/../h/riscv.h ****     static uint64   r_sstatus();
  43:src/../h/riscv.h **** 
  44:src/../h/riscv.h ****     static void     w_sstatus(uint64 sstatus);
  45:src/../h/riscv.h **** 
  46:src/../h/riscv.h ****     // funkcije koje su navedene ispod maskiraju bitove sistemskih registara:
  47:src/../h/riscv.h ****     // ms_ je mask-set, mc_ je mask-clear
  48:src/../h/riscv.h **** 
  49:src/../h/riscv.h ****     static void     ms_sstatus(uint64 mask);
  50:src/../h/riscv.h **** 
  51:src/../h/riscv.h ****     static void     mc_sstatus(uint64 mask);
  52:src/../h/riscv.h **** 
  53:src/../h/riscv.h ****     static void     ms_sip(uint64 mask);
  54:src/../h/riscv.h **** 
  55:src/../h/riscv.h ****     static void     mc_sip(uint64 mask);
  56:src/../h/riscv.h **** };
  57:src/../h/riscv.h **** 
  58:src/../h/riscv.h **** 
  59:src/../h/riscv.h **** inline uint64 RiscV::r_scause() {
  60:src/../h/riscv.h ****     uint64 volatile scause;
  61:src/../h/riscv.h ****     __asm__ volatile ("csrr %[scause], scause" : [scause] "=r"(scause));
  62:src/../h/riscv.h ****     return scause;
  63:src/../h/riscv.h **** }
  64:src/../h/riscv.h **** 
  65:src/../h/riscv.h **** inline void RiscV::w_scause(uint64 scause) {
  66:src/../h/riscv.h ****     __asm__ volatile ("csrw scause, %[scause]" : : [scause] "r"(scause));
  67:src/../h/riscv.h **** }
  68:src/../h/riscv.h **** 
  69:src/../h/riscv.h **** inline uint64 RiscV::r_sepc() {
  70:src/../h/riscv.h ****     uint64 volatile sepc;
  24              		.loc 2 70 5
  71:src/../h/riscv.h ****     __asm__ volatile ("csrr %[sepc], sepc" : [sepc] "=r"(sepc));
  25              		.loc 2 71 5
  26              		.loc 2 71 64 is_stmt 0
  27              	#APP
  28              	# 71 "src/../h/riscv.h" 1
  72              	    return sepc;
  29              		csrr a5, sepc
  30              	# 0 "" 2
  31              	#NO_APP
  32 0010 233CF4FC 		sd	a5,-40(s0)
  33              		.loc 2 72 5 is_stmt 1
  34              		.loc 2 72 12 is_stmt 0
  35 0014 833784FD 		ld	a5,-40(s0)
  36              	.LBE15:
  37              	.LBE14:
GAS LISTING /tmp/cc1bthvr.s 			page 3


  38              		.loc 1 6 35
  39 0018 2334F4FE 		sd	a5,-24(s0)
   7:src/riscv.cpp ****     uint64 volatile sstatus = r_sstatus();
  40              		.loc 1 7 5 is_stmt 1
  41              	.LBB16:
  42              	.LBB17:
  73:src/../h/riscv.h **** }
  74:src/../h/riscv.h **** 
  75:src/../h/riscv.h **** inline void RiscV::w_sepc(uint64 sepc) {
  76:src/../h/riscv.h ****     __asm__ volatile ("csrw sepc, %[sepc]" : : [sepc] "r"(sepc));
  77:src/../h/riscv.h **** }
  78:src/../h/riscv.h **** 
  79:src/../h/riscv.h **** inline uint64 RiscV::r_stvec() {
  80:src/../h/riscv.h ****     uint64 volatile stvec;
  81:src/../h/riscv.h ****     __asm__ volatile ("csrr %[stvec], stvec" : [stvec] "=r"(stvec));
  82:src/../h/riscv.h ****     return stvec;
  83:src/../h/riscv.h **** }
  84:src/../h/riscv.h **** 
  85:src/../h/riscv.h **** inline void RiscV::w_stvec(uint64 stvec) {
  86:src/../h/riscv.h ****     __asm__ volatile ("csrw stvec, %[stvec]" : : [stvec] "r"(stvec));
  87:src/../h/riscv.h **** }
  88:src/../h/riscv.h **** 
  89:src/../h/riscv.h **** inline uint64 RiscV::r_stval() {
  90:src/../h/riscv.h ****     uint64 volatile stval;
  91:src/../h/riscv.h ****     __asm__ volatile ("csrr %[stval], stval" : [stval] "=r"(stval));
  92:src/../h/riscv.h ****     return stval;
  93:src/../h/riscv.h **** }
  94:src/../h/riscv.h **** 
  95:src/../h/riscv.h **** inline void RiscV::w_stval(uint64 stval) {
  96:src/../h/riscv.h ****     __asm__ volatile ("csrw stval, %[stval]" : : [stval] "r"(stval));
  97:src/../h/riscv.h **** }
  98:src/../h/riscv.h **** 
  99:src/../h/riscv.h **** inline uint64 RiscV::r_sip() {
 100:src/../h/riscv.h ****     uint64 volatile sip;
 101:src/../h/riscv.h ****     __asm__ volatile ("csrr %[sip], sip" : [sip] "=r"(sip));
 102:src/../h/riscv.h ****     return sip;
 103:src/../h/riscv.h **** }
 104:src/../h/riscv.h **** 
 105:src/../h/riscv.h **** inline void RiscV::w_sip(uint64 sip) {
 106:src/../h/riscv.h ****     __asm__ volatile ("csrw sip, %[sip]" : : [sip] "r"(sip));
 107:src/../h/riscv.h **** }
 108:src/../h/riscv.h **** 
 109:src/../h/riscv.h **** inline uint64 RiscV::r_sstatus() {
 110:src/../h/riscv.h ****     uint64 volatile sstatus;
  43              		.loc 2 110 5
 111:src/../h/riscv.h ****     __asm__ volatile ("csrr %[sstatus], sstatus" : [sstatus] "=r"(sstatus));
  44              		.loc 2 111 5
  45              		.loc 2 111 76 is_stmt 0
  46              	#APP
  47              	# 111 "src/../h/riscv.h" 1
 112              	    return sstatus;
  48              		csrr a5, sstatus
  49              	# 0 "" 2
  50              	#NO_APP
  51 0020 2338F4FC 		sd	a5,-48(s0)
  52              		.loc 2 112 5 is_stmt 1
  53              		.loc 2 112 12 is_stmt 0
GAS LISTING /tmp/cc1bthvr.s 			page 4


  54 0024 833704FD 		ld	a5,-48(s0)
  55              	.LBE17:
  56              	.LBE16:
  57              		.loc 1 7 41
  58 0028 2330F4FE 		sd	a5,-32(s0)
   8:src/riscv.cpp **** 
   9:src/riscv.cpp ****     uint64 opCode;
  59              		.loc 1 9 5 is_stmt 1
  10:src/riscv.cpp ****     __asm__ volatile ("mv %0, a0" : "=r" (opCode));
  60              		.loc 1 10 5
  61              		.loc 1 10 51 is_stmt 0
  62              	#APP
  63              	# 10 "src/riscv.cpp" 1
  11              	
  64              		mv a5, a0
  65              	# 0 "" 2
  66              	.LVL0:
  12:src/riscv.cpp ****     void* ptr;
  67              		.loc 1 12 5 is_stmt 1
  13:src/riscv.cpp **** 
  14:src/riscv.cpp ****     switch (opCode) {
  68              		.loc 1 14 5
  69              	#NO_APP
  70              	.LBB18:
  71 0030 13071000 		li	a4,1
  72 0034 6386E702 		beq	a5,a4,.L2
  73 0038 13072000 		li	a4,2
  74 003c 638AE702 		beq	a5,a4,.L3
  75              	.LVL1:
  76              	.L4:
  77              	.LBE18:
  15:src/riscv.cpp **** 
  16:src/riscv.cpp ****         case MEM_ALLOC: {
  17:src/riscv.cpp ****             size_t size;
  18:src/riscv.cpp ****             __asm__ volatile ("mv %0, a1" : "=r" (size));
  19:src/riscv.cpp ****             ptr = nullptr; // ovde treba ptr = MemoryAllocator::kmalloc(size); kad to budem napravi
  20:src/riscv.cpp ****             __asm__ volatile ("mv a0, %0" : : "r" (ptr));
  21:src/riscv.cpp ****             break;
  22:src/riscv.cpp ****         }
  23:src/riscv.cpp ****         case MEM_FREE: {
  24:src/riscv.cpp ****             __asm__ volatile ("mv %0, a1" : "=r" (ptr));
  25:src/riscv.cpp ****             int retValue = 0; // ovde treba ptr = MemoryAllocator::kfree(ptr); kad to budem napravi
  26:src/riscv.cpp ****             __asm__ volatile ("mv a0, %0" : : "r" (retValue));
  27:src/riscv.cpp ****             break;
  28:src/riscv.cpp ****         }
  29:src/riscv.cpp ****         default:
  30:src/riscv.cpp ****             break;
  31:src/riscv.cpp ****     }
  32:src/riscv.cpp ****     //vracamo staru statusnu rec i inkrementiramo sepc
  33:src/riscv.cpp ****     w_sstatus(sstatus);
  78              		.loc 1 33 5
  79              		.loc 1 33 14 is_stmt 0
  80 0040 833704FE 		ld	a5,-32(s0)
  81              	.LVL2:
  82              	.LBB21:
  83              	.LBB22:
 113:src/../h/riscv.h **** }
GAS LISTING /tmp/cc1bthvr.s 			page 5


 114:src/../h/riscv.h **** 
 115:src/../h/riscv.h **** inline void RiscV::w_sstatus(uint64 sstatus) {
 116:src/../h/riscv.h ****     __asm__ volatile ("csrw sstatus, %[sstatus]" : : [sstatus] "r"(sstatus));
  84              		.loc 2 116 5 is_stmt 1
  85              		.loc 2 116 77 is_stmt 0
  86              	#APP
  87              	# 116 "src/../h/riscv.h" 1
 117              	}
  88              		csrw sstatus, a5
  89              	# 0 "" 2
  90              	.LVL3:
  91              	#NO_APP
  92              	.LBE22:
  93              	.LBE21:
  34:src/riscv.cpp ****     w_sepc(sepc + 4);
  94              		.loc 1 34 5 is_stmt 1
  95              		.loc 1 34 12 is_stmt 0
  96 0048 833784FE 		ld	a5,-24(s0)
  97              		.loc 1 34 11
  98 004c 93874700 		addi	a5,a5,4
  99              	.LVL4:
 100              	.LBB23:
 101              	.LBB24:
  76:src/../h/riscv.h **** }
 102              		.loc 2 76 5 is_stmt 1
  76:src/../h/riscv.h **** }
 103              		.loc 2 76 65 is_stmt 0
 104              	#APP
 105              	# 76 "src/../h/riscv.h" 1
 106              		csrw sepc, a5
 107              	# 0 "" 2
 108              	.LVL5:
 109              	#NO_APP
 110              	.LBE24:
 111              	.LBE23:
  35:src/riscv.cpp **** 
  36:src/riscv.cpp **** }
 112              		.loc 1 36 1
 113 0054 03348102 		ld	s0,40(sp)
 114              		.cfi_remember_state
 115              		.cfi_restore 8
 116              		.cfi_def_cfa 2, 48
 117 0058 13010103 		addi	sp,sp,48
 118              		.cfi_def_cfa_offset 0
 119 005c 67800000 		jr	ra
 120              	.LVL6:
 121              	.L2:
 122              		.cfi_restore_state
  16:src/riscv.cpp ****             size_t size;
 123              		.loc 1 16 9 is_stmt 1
  16:src/riscv.cpp ****             size_t size;
 124              		.loc 1 16 25
 125              	.LBB25:
 126              	.LBB19:
  17:src/riscv.cpp ****             __asm__ volatile ("mv %0, a1" : "=r" (size));
 127              		.loc 1 17 13
  18:src/riscv.cpp ****             ptr = nullptr; // ovde treba ptr = MemoryAllocator::kmalloc(size); kad to budem napravi
GAS LISTING /tmp/cc1bthvr.s 			page 6


 128              		.loc 1 18 13
  18:src/riscv.cpp ****             ptr = nullptr; // ovde treba ptr = MemoryAllocator::kmalloc(size); kad to budem napravi
 129              		.loc 1 18 57 is_stmt 0
 130              	#APP
 131              	# 18 "src/riscv.cpp" 1
 132              		mv a5, a1
 133              	# 0 "" 2
 134              	.LVL7:
  19:src/riscv.cpp ****             __asm__ volatile ("mv a0, %0" : : "r" (ptr));
 135              		.loc 1 19 13 is_stmt 1
  20:src/riscv.cpp ****             break;
 136              		.loc 1 20 13
  20:src/riscv.cpp ****             break;
 137              		.loc 1 20 57 is_stmt 0
 138              	#NO_APP
 139 0064 93070000 		li	a5,0
 140              	#APP
 141              	# 20 "src/riscv.cpp" 1
  21:src/riscv.cpp ****         }
 142              		mv a0, a5
 143              	# 0 "" 2
 144              		.loc 1 21 13 is_stmt 1
 145              	#NO_APP
 146 006c 6FF05FFD 		j	.L4
 147              	.LVL8:
 148              	.L3:
 149              	.LBE19:
 150              	.LBE25:
  23:src/riscv.cpp ****             __asm__ volatile ("mv %0, a1" : "=r" (ptr));
 151              		.loc 1 23 9
  23:src/riscv.cpp ****             __asm__ volatile ("mv %0, a1" : "=r" (ptr));
 152              		.loc 1 23 24
 153              	.LBB26:
 154              	.LBB20:
  24:src/riscv.cpp ****             int retValue = 0; // ovde treba ptr = MemoryAllocator::kfree(ptr); kad to budem napravi
 155              		.loc 1 24 13
  24:src/riscv.cpp ****             int retValue = 0; // ovde treba ptr = MemoryAllocator::kfree(ptr); kad to budem napravi
 156              		.loc 1 24 56 is_stmt 0
 157              	#APP
 158              	# 24 "src/riscv.cpp" 1
 159              		mv a5, a1
 160              	# 0 "" 2
 161              	.LVL9:
  25:src/riscv.cpp ****             __asm__ volatile ("mv a0, %0" : : "r" (retValue));
 162              		.loc 1 25 13 is_stmt 1
  26:src/riscv.cpp ****             break;
 163              		.loc 1 26 13
  26:src/riscv.cpp ****             break;
 164              		.loc 1 26 62 is_stmt 0
 165              	#NO_APP
 166 0074 93070000 		li	a5,0
 167              	#APP
 168              	# 26 "src/riscv.cpp" 1
  27:src/riscv.cpp ****         }
 169              		mv a0, a5
 170              	# 0 "" 2
 171              		.loc 1 27 13 is_stmt 1
GAS LISTING /tmp/cc1bthvr.s 			page 7


 172              	#NO_APP
 173 007c 6FF05FFC 		j	.L4
 174              	.LBE20:
 175              	.LBE26:
 176              		.cfi_endproc
 177              	.LFE16:
 179              		.align	2
 180              		.globl	handleTimerInterrupt
 182              	handleTimerInterrupt:
 183              	.LFB17:
  37:src/riscv.cpp **** 
  38:src/riscv.cpp **** void RiscV::handleTimerInterrupt() {
 184              		.loc 1 38 36
 185              		.cfi_startproc
 186 0080 130101FF 		addi	sp,sp,-16
 187              		.cfi_def_cfa_offset 16
 188 0084 23348100 		sd	s0,8(sp)
 189              		.cfi_offset 8, -8
 190 0088 13040101 		addi	s0,sp,16
 191              		.cfi_def_cfa 8, 0
  39:src/riscv.cpp ****     //verovatno ce trebati ovde da se desava promena konteksta
  40:src/riscv.cpp **** }
 192              		.loc 1 40 1 is_stmt 0
 193 008c 03348100 		ld	s0,8(sp)
 194              		.cfi_restore 8
 195              		.cfi_def_cfa 2, 16
 196 0090 13010101 		addi	sp,sp,16
 197              		.cfi_def_cfa_offset 0
 198 0094 67800000 		jr	ra
 199              		.cfi_endproc
 200              	.LFE17:
 202              		.align	2
 203              		.globl	handleConsoleInterrupt
 205              	handleConsoleInterrupt:
 206              	.LFB18:
  41:src/riscv.cpp **** 
  42:src/riscv.cpp **** void RiscV::handleConsoleInterrupt() {
 207              		.loc 1 42 38 is_stmt 1
 208              		.cfi_startproc
 209 0098 130101FF 		addi	sp,sp,-16
 210              		.cfi_def_cfa_offset 16
 211 009c 23348100 		sd	s0,8(sp)
 212              		.cfi_offset 8, -8
 213 00a0 13040101 		addi	s0,sp,16
 214              		.cfi_def_cfa 8, 0
  43:src/riscv.cpp **** 
  44:src/riscv.cpp **** }
 215              		.loc 1 44 1 is_stmt 0
 216 00a4 03348100 		ld	s0,8(sp)
 217              		.cfi_restore 8
 218              		.cfi_def_cfa 2, 16
 219 00a8 13010101 		addi	sp,sp,16
 220              		.cfi_def_cfa_offset 0
 221 00ac 67800000 		jr	ra
 222              		.cfi_endproc
 223              	.LFE18:
 225              	.Letext0:
GAS LISTING /tmp/cc1bthvr.s 			page 8


 226              		.file 3 "src/../h/../lib/hw.h"
 227              		.file 4 "src/../h/opCodes.h"
GAS LISTING /tmp/cc1bthvr.s 			page 9


DEFINED SYMBOLS
                            *ABS*:0000000000000000 riscv.cpp
     /tmp/cc1bthvr.s:9      .text:0000000000000000 handleSynchronousSysCalls
     /tmp/cc1bthvr.s:13     .text:0000000000000000 .L0 
     /tmp/cc1bthvr.s:14     .text:0000000000000000 .L0 
     /tmp/cc1bthvr.s:15     .text:0000000000000004 .L0 
     /tmp/cc1bthvr.s:17     .text:0000000000000008 .L0 
     /tmp/cc1bthvr.s:19     .text:000000000000000c .L0 
     /tmp/cc1bthvr.s:24     .text:000000000000000c .L0 
     /tmp/cc1bthvr.s:25     .text:000000000000000c .L0 
     /tmp/cc1bthvr.s:26     .text:000000000000000c .L0 
    src/../h/riscv.h:71     .text:000000000000000c .L0 
     /tmp/cc1bthvr.s:34     .text:0000000000000014 .L0 
     /tmp/cc1bthvr.s:35     .text:0000000000000014 .L0 
     /tmp/cc1bthvr.s:39     .text:0000000000000018 .L0 
     /tmp/cc1bthvr.s:43     .text:000000000000001c .L0 
     /tmp/cc1bthvr.s:44     .text:000000000000001c .L0 
     /tmp/cc1bthvr.s:45     .text:000000000000001c .L0 
    src/../h/riscv.h:111    .text:000000000000001c .L0 
     /tmp/cc1bthvr.s:53     .text:0000000000000024 .L0 
     /tmp/cc1bthvr.s:54     .text:0000000000000024 .L0 
     /tmp/cc1bthvr.s:58     .text:0000000000000028 .L0 
     /tmp/cc1bthvr.s:60     .text:000000000000002c .L0 
     /tmp/cc1bthvr.s:61     .text:000000000000002c .L0 
       src/riscv.cpp:10     .text:000000000000002c .L0 
     /tmp/cc1bthvr.s:68     .text:0000000000000030 .L0 
     /tmp/cc1bthvr.s:71     .text:0000000000000030 .L0 
     /tmp/cc1bthvr.s:79     .text:0000000000000040 .L0 
     /tmp/cc1bthvr.s:80     .text:0000000000000040 .L0 
     /tmp/cc1bthvr.s:85     .text:0000000000000044 .L0 
    src/../h/riscv.h:116    .text:0000000000000044 .L0 
     /tmp/cc1bthvr.s:95     .text:0000000000000048 .L0 
     /tmp/cc1bthvr.s:96     .text:0000000000000048 .L0 
     /tmp/cc1bthvr.s:98     .text:000000000000004c .L0 
     /tmp/cc1bthvr.s:103    .text:0000000000000050 .L0 
    src/../h/riscv.h:76     .text:0000000000000050 .L0 
     /tmp/cc1bthvr.s:113    .text:0000000000000054 .L0 
     /tmp/cc1bthvr.s:114    .text:0000000000000058 .L0 
     /tmp/cc1bthvr.s:115    .text:0000000000000058 .L0 
     /tmp/cc1bthvr.s:116    .text:0000000000000058 .L0 
     /tmp/cc1bthvr.s:118    .text:000000000000005c .L0 
     /tmp/cc1bthvr.s:122    .text:0000000000000060 .L0 
     /tmp/cc1bthvr.s:124    .text:0000000000000060 .L0 
     /tmp/cc1bthvr.s:127    .text:0000000000000060 .L0 
     /tmp/cc1bthvr.s:128    .text:0000000000000060 .L0 
     /tmp/cc1bthvr.s:129    .text:0000000000000060 .L0 
       src/riscv.cpp:18     .text:0000000000000060 .L0 
     /tmp/cc1bthvr.s:136    .text:0000000000000064 .L0 
     /tmp/cc1bthvr.s:137    .text:0000000000000064 .L0 
     /tmp/cc1bthvr.s:139    .text:0000000000000064 .L0 
     /tmp/cc1bthvr.s:146    .text:000000000000006c .L0 
     /tmp/cc1bthvr.s:152    .text:0000000000000070 .L0 
     /tmp/cc1bthvr.s:155    .text:0000000000000070 .L0 
     /tmp/cc1bthvr.s:156    .text:0000000000000070 .L0 
       src/riscv.cpp:24     .text:0000000000000070 .L0 
     /tmp/cc1bthvr.s:163    .text:0000000000000074 .L0 
     /tmp/cc1bthvr.s:164    .text:0000000000000074 .L0 
GAS LISTING /tmp/cc1bthvr.s 			page 10


     /tmp/cc1bthvr.s:166    .text:0000000000000074 .L0 
     /tmp/cc1bthvr.s:173    .text:000000000000007c .L0 
     /tmp/cc1bthvr.s:176    .text:0000000000000080 .L0 
     /tmp/cc1bthvr.s:182    .text:0000000000000080 handleTimerInterrupt
     /tmp/cc1bthvr.s:185    .text:0000000000000080 .L0 
     /tmp/cc1bthvr.s:186    .text:0000000000000080 .L0 
     /tmp/cc1bthvr.s:187    .text:0000000000000084 .L0 
     /tmp/cc1bthvr.s:189    .text:0000000000000088 .L0 
     /tmp/cc1bthvr.s:191    .text:000000000000008c .L0 
     /tmp/cc1bthvr.s:193    .text:000000000000008c .L0 
     /tmp/cc1bthvr.s:194    .text:0000000000000090 .L0 
     /tmp/cc1bthvr.s:195    .text:0000000000000090 .L0 
     /tmp/cc1bthvr.s:197    .text:0000000000000094 .L0 
     /tmp/cc1bthvr.s:199    .text:0000000000000098 .L0 
     /tmp/cc1bthvr.s:205    .text:0000000000000098 handleConsoleInterrupt
     /tmp/cc1bthvr.s:208    .text:0000000000000098 .L0 
     /tmp/cc1bthvr.s:209    .text:0000000000000098 .L0 
     /tmp/cc1bthvr.s:210    .text:000000000000009c .L0 
     /tmp/cc1bthvr.s:212    .text:00000000000000a0 .L0 
     /tmp/cc1bthvr.s:214    .text:00000000000000a4 .L0 
     /tmp/cc1bthvr.s:216    .text:00000000000000a4 .L0 
     /tmp/cc1bthvr.s:217    .text:00000000000000a8 .L0 
     /tmp/cc1bthvr.s:218    .text:00000000000000a8 .L0 
     /tmp/cc1bthvr.s:220    .text:00000000000000ac .L0 
     /tmp/cc1bthvr.s:222    .text:00000000000000b0 .L0 
     /tmp/cc1bthvr.s:228    .text:00000000000000b0 .L0 
     /tmp/cc1bthvr.s:121    .text:0000000000000060 .L2
     /tmp/cc1bthvr.s:148    .text:0000000000000070 .L3
     /tmp/cc1bthvr.s:76     .text:0000000000000040 .L4
     /tmp/cc1bthvr.s:788    .debug_abbrev:0000000000000000 .Ldebug_abbrev0
     /tmp/cc1bthvr.s:1437   .debug_str:00000000000001d9 .LASF69
     /tmp/cc1bthvr.s:1449   .debug_str:00000000000002e4 .LASF70
     /tmp/cc1bthvr.s:1469   .debug_str:0000000000000382 .LASF71
     /tmp/cc1bthvr.s:5      .text:0000000000000000 .Ltext0
     /tmp/cc1bthvr.s:225    .text:00000000000000b0 .Letext0
     /tmp/cc1bthvr.s:1365   .debug_line:0000000000000000 .Ldebug_line0
     /tmp/cc1bthvr.s:1445   .debug_str:00000000000002cf .LASF0
     /tmp/cc1bthvr.s:1423   .debug_str:0000000000000161 .LASF1
     /tmp/cc1bthvr.s:1413   .debug_str:0000000000000119 .LASF2
     /tmp/cc1bthvr.s:1389   .debug_str:0000000000000084 .LASF4
     /tmp/cc1bthvr.s:1419   .debug_str:0000000000000147 .LASF3
     /tmp/cc1bthvr.s:1371   .debug_str:0000000000000025 .LASF5
     /tmp/cc1bthvr.s:1369   .debug_str:0000000000000012 .LASF6
     /tmp/cc1bthvr.s:1405   .debug_str:00000000000000d8 .LASF7
     /tmp/cc1bthvr.s:1461   .debug_str:000000000000033d .LASF8
     /tmp/cc1bthvr.s:1387   .debug_str:0000000000000076 .LASF9
     /tmp/cc1bthvr.s:1521   .debug_str:00000000000004e5 .LASF10
     /tmp/cc1bthvr.s:1409   .debug_str:0000000000000101 .LASF11
     /tmp/cc1bthvr.s:1501   .debug_str:0000000000000473 .LASF12
     /tmp/cc1bthvr.s:1455   .debug_str:000000000000030d .LASF13
     /tmp/cc1bthvr.s:1427   .debug_str:000000000000018e .LASF14
     /tmp/cc1bthvr.s:1397   .debug_str:00000000000000b1 .LASF15
     /tmp/cc1bthvr.s:1463   .debug_str:000000000000034d .LASF16
     /tmp/cc1bthvr.s:1511   .debug_str:00000000000004ab .LASF72
     /tmp/cc1bthvr.s:1515   .debug_str:00000000000004bc .LASF73
     /tmp/cc1bthvr.s:1481   .debug_str:00000000000003f3 .LASF74
     /tmp/cc1bthvr.s:1425   .debug_str:0000000000000174 .LASF17
GAS LISTING /tmp/cc1bthvr.s 			page 11


     /tmp/cc1bthvr.s:1457   .debug_str:000000000000031d .LASF18
     /tmp/cc1bthvr.s:1441   .debug_str:00000000000002a6 .LASF19
     /tmp/cc1bthvr.s:1439   .debug_str:000000000000029d .LASF20
     /tmp/cc1bthvr.s:1475   .debug_str:00000000000003bd .LASF22
     /tmp/cc1bthvr.s:1411   .debug_str:0000000000000110 .LASF24
     /tmp/cc1bthvr.s:1503   .debug_str:0000000000000483 .LASF26
     /tmp/cc1bthvr.s:1451   .debug_str:00000000000002f2 .LASF21
     /tmp/cc1bthvr.s:1477   .debug_str:00000000000003d2 .LASF23
     /tmp/cc1bthvr.s:1401   .debug_str:00000000000000cc .LASF25
     /tmp/cc1bthvr.s:1465   .debug_str:0000000000000363 .LASF27
     /tmp/cc1bthvr.s:1447   .debug_str:00000000000002dc .LASF28
     /tmp/cc1bthvr.s:1453   .debug_str:00000000000002f9 .LASF29
     /tmp/cc1bthvr.s:1421   .debug_str:0000000000000159 .LASF30
     /tmp/cc1bthvr.s:1435   .debug_str:00000000000001c5 .LASF31
     /tmp/cc1bthvr.s:1493   .debug_str:000000000000044a .LASF32
     /tmp/cc1bthvr.s:1497   .debug_str:0000000000000459 .LASF33
     /tmp/cc1bthvr.s:1417   .debug_str:000000000000013f .LASF34
     /tmp/cc1bthvr.s:1473   .debug_str:00000000000003a9 .LASF35
     /tmp/cc1bthvr.s:1499   .debug_str:000000000000046d .LASF36
     /tmp/cc1bthvr.s:1443   .debug_str:00000000000002bd .LASF37
     /tmp/cc1bthvr.s:1383   .debug_str:0000000000000068 .LASF38
     /tmp/cc1bthvr.s:1367   .debug_str:0000000000000000 .LASF39
     /tmp/cc1bthvr.s:1391   .debug_str:000000000000008b .LASF40
     /tmp/cc1bthvr.s:1407   .debug_str:00000000000000eb .LASF41
     /tmp/cc1bthvr.s:1377   .debug_str:0000000000000040 .LASF42
     /tmp/cc1bthvr.s:1491   .debug_str:0000000000000434 .LASF43
     /tmp/cc1bthvr.s:1489   .debug_str:0000000000000429 .LASF44
     /tmp/cc1bthvr.s:1429   .debug_str:000000000000019a .LASF45
     /tmp/cc1bthvr.s:1513   .debug_str:00000000000004b1 .LASF46
     /tmp/cc1bthvr.s:1415   .debug_str:0000000000000127 .LASF47
     /tmp/cc1bthvr.s:1495   .debug_str:0000000000000452 .LASF48
     /tmp/cc1bthvr.s:1381   .debug_str:0000000000000055 .LASF49
     /tmp/cc1bthvr.s:1375   .debug_str:0000000000000039 .LASF75
     /tmp/cc1bthvr.s:1395   .debug_str:000000000000009e .LASF76
     /tmp/cc1bthvr.s:1385   .debug_str:000000000000006e .LASF77
     /tmp/cc1bthvr.s:1431   .debug_str:00000000000001b2 .LASF50
     /tmp/cc1bthvr.s:1505   .debug_str:0000000000000498 .LASF51
     /tmp/cc1bthvr.s:1479   .debug_str:00000000000003e5 .LASF52
     /tmp/cc1bthvr.s:1467   .debug_str:0000000000000376 .LASF53
     /tmp/cc1bthvr.s:1517   .debug_str:00000000000004cb .LASF54
     /tmp/cc1bthvr.s:1471   .debug_str:00000000000003a0 .LASF55
     /tmp/cc1bthvr.s:1519   .debug_str:00000000000004db .LASF56
     /tmp/cc1bthvr.s:1433   .debug_str:00000000000001bc .LASF57
     /tmp/cc1bthvr.s:1483   .debug_str:000000000000040f .LASF58
     /tmp/cc1bthvr.s:1459   .debug_str:0000000000000332 .LASF59
     /tmp/cc1bthvr.s:1373   .debug_str:000000000000002c .LASF60
     /tmp/cc1bthvr.s:1379   .debug_str:000000000000004a .LASF61
     /tmp/cc1bthvr.s:1403   .debug_str:00000000000000d3 .LASF62
     /tmp/cc1bthvr.s:1399   .debug_str:00000000000000c7 .LASF63
     /tmp/cc1bthvr.s:206    .text:0000000000000098 .LFB18
     /tmp/cc1bthvr.s:223    .text:00000000000000b0 .LFE18
     /tmp/cc1bthvr.s:183    .text:0000000000000080 .LFB17
     /tmp/cc1bthvr.s:200    .text:0000000000000098 .LFE17
     /tmp/cc1bthvr.s:10     .text:0000000000000000 .LFB16
     /tmp/cc1bthvr.s:177    .text:0000000000000080 .LFE16
     /tmp/cc1bthvr.s:1507   .debug_str:00000000000004a1 .LASF64
     /tmp/cc1bthvr.s:1487   .debug_str:0000000000000421 .LASF65
GAS LISTING /tmp/cc1bthvr.s 			page 12


     /tmp/cc1bthvr.s:1485   .debug_str:000000000000041a .LASF66
     /tmp/cc1bthvr.s:1315   .debug_loc:0000000000000000 .LLST0
     /tmp/cc1bthvr.s:1330   .debug_loc:0000000000000049 .LLST1
     /tmp/cc1bthvr.s:126    .text:0000000000000060 .LBB19
     /tmp/cc1bthvr.s:149    .text:0000000000000070 .LBE19
     /tmp/cc1bthvr.s:1509   .debug_str:00000000000004a6 .LASF68
     /tmp/cc1bthvr.s:154    .text:0000000000000070 .LBB20
     /tmp/cc1bthvr.s:174    .text:0000000000000080 .LBE20
     /tmp/cc1bthvr.s:1393   .debug_str:0000000000000095 .LASF67
     /tmp/cc1bthvr.s:21     .text:000000000000000c .LBB14
     /tmp/cc1bthvr.s:37     .text:0000000000000018 .LBE14
     /tmp/cc1bthvr.s:41     .text:000000000000001c .LBB16
     /tmp/cc1bthvr.s:56     .text:0000000000000028 .LBE16
     /tmp/cc1bthvr.s:82     .text:0000000000000044 .LBB21
     /tmp/cc1bthvr.s:93     .text:0000000000000048 .LBE21
     /tmp/cc1bthvr.s:1338   .debug_loc:000000000000006d .LLST2
     /tmp/cc1bthvr.s:100    .text:0000000000000050 .LBB23
     /tmp/cc1bthvr.s:111    .text:0000000000000054 .LBE23
     /tmp/cc1bthvr.s:1345   .debug_loc:0000000000000090 .LLST3
     /tmp/cc1bthvr.s:66     .text:0000000000000030 .LVL0
     /tmp/cc1bthvr.s:75     .text:0000000000000040 .LVL1
     /tmp/cc1bthvr.s:120    .text:0000000000000060 .LVL6
     /tmp/cc1bthvr.s:134    .text:0000000000000064 .LVL7
     /tmp/cc1bthvr.s:147    .text:0000000000000070 .LVL8
     /tmp/cc1bthvr.s:161    .text:0000000000000074 .LVL9
     /tmp/cc1bthvr.s:81     .text:0000000000000044 .LVL2
     /tmp/cc1bthvr.s:90     .text:0000000000000048 .LVL3
     /tmp/cc1bthvr.s:99     .text:0000000000000050 .LVL4
     /tmp/cc1bthvr.s:108    .text:0000000000000054 .LVL5
     /tmp/cc1bthvr.s:229    .debug_info:0000000000000000 .Ldebug_info0

NO UNDEFINED SYMBOLS
